(dp1
((F3
F2
F5
I1
I4
I6
tI2
tp2
F-0.9919
s((F2
F2
F4
I2
I0
I6
tI2
tp3
F-2.0999999999999996
s((F5
I5
I5
I0
I0
I0
tI2
tp4
F0
s((F3
F3
F5
I3
I0
I6
tI2
tp5
F-2.7929999999999997
s((F3
F3
F5
I1
I2
I6
tI3
tp6
F-0.69999999999999996
s((F4
F4
F5
I0
I0
I4
tI1
tp7
F-0.69999999999999996
s((F2
F4
F4
I0
I0
I6
tI3
tp8
F-2.8065599510291404
s((F3
F1
F4
I0
I3
I6
tI2
tp9
F-1.3999999999999999
s((F3
F4
F4
I3
I1
I6
tI3
tp10
F-0.64539999999999986
s((F3
F2
F4
I0
I0
I6
tI3
tp11
F-2.9944109999999999
s((F4
F3
F5
I0
I3
I6
tI1
tp12
F-2.0999999999999996
s((F4
F1
F5
I0
I1
I6
tI2
tp13
F-2.7530566811227071
s((F3
F4
F5
I0
I1
I4
tI1
tp14
F-2.4359999999999999
s((F4
F4
F5
I0
I1
I6
tI1
tp15
F-1.0777556826416532
s((F1
F4
F5
I0
I5
I6
tI3
tp16
F-0.69999999999999996
s((F4
F1
F5
I0
I3
I6
tI2
tp17
F-2.0999999999999996
s((F3
F2
F5
I0
I1
I6
tI1
tp18
F-1.7478060786163252
s((F4
F4
F3
I1
I0
I6
tI2
tp19
F-0.69999999999999996
s((F3
F4
F5
I1
I0
I6
tI1
tp20
F-0.9919
s((F2
F4
F5
I1
I0
I6
tI3
tp21
F-0.89080389999999998
s((F3
F2
F5
I0
I0
I4
tI1
tp22
F0
s((F5
F5
I5
I1
I0
I6
tI2
tp23
F-2.4377940951000001
s((F4
F3
F5
I1
I3
I6
tI3
tp24
F-2.3730059045396992
s((F2
F2
F4
I1
I3
I6
tI3
tp25
F0
s((F4
F4
F3
I0
I1
I4
tI2
tp26
F-0.69999999999999996
s((F1
F2
F3
I0
I1
I6
tI2
tp27
F-0.90999999999999992
s((F3
F3
F4
I0
I0
I4
tI3
tp28
F-1.1830000000000001
s((F5
F4
F4
I0
I0
I6
tI1
tp29
F-2.9999822853000002
s((F3
F2
F5
I1
I1
I6
tI1
tp30
F-0.90999999999999992
s((F1
F2
F5
I0
I1
I6
tI1
tp31
F0.61109999999999998
s((F4
F5
F5
I0
I1
I6
tI2
tp32
F-1.1767000000000001
s((F5
F4
F5
I0
I1
I6
tI3
tp33
F-2.816541302512126
s((F4
F3
F4
I0
I1
I6
tI1
tp34
F-2.3099999999999996
s((F3
F3
F5
I0
I1
I6
tI1
tp35
F-2.0995979010326415
s((F4
F2
F5
I0
I1
I6
tI3
tp36
F-2.4843842467277648
s((F3
F4
F4
I2
I1
I6
tI1
tp37
F-0.8683395237999999
s((F5
F4
F5
I0
I0
I4
tI3
tp38
F0
s((F4
F5
F5
I0
I0
I2
tI3
tp39
F0
s((F2
F1
F5
I1
I0
I6
tI3
tp40
F-2.3729999999999998
s((F1
F4
F4
I0
I1
I4
tI1
tp41
F0.28000000000000003
s((F4
F1
F4
I0
I0
I6
tI1
tp42
F-0.69999999999999996
s((F3
F2
F5
I1
I2
I6
tI2
tp43
F-2.3729999999999998
s((F5
F3
F5
I0
I0
I6
tI1
tp44
F-2.919
s((F3
F1
F5
I0
I0
I6
tI1
tp45
F-2.73
s((F2
F2
F4
I3
I0
I6
tI3
tp46
F-2.0999999999999996
s((F3
F3
F5
I0
I4
I6
tI2
tp47
F-2.73
s((F5
F3
F4
I0
I0
I6
tI2
tp48
F-2.0999999999999996
s((F3
F1
F5
I0
I1
I6
tI2
tp49
F1.6548552162506329
s((F4
F2
F5
I1
I3
I6
tI2
tp50
F-0.82767343568559992
s((F4
F2
F5
I0
I0
I2
tI1
tp51
F0
s((F4
F4
F4
I0
I1
I6
tI1
tp52
F2.5415665511415133
s((F2
F3
F4
I0
I0
I6
tI1
tp53
F-2.9486729999999999
s((F2
F2
F5
I0
I1
I6
tI2
tp54
F0.9868954807533129
s((F1
F2
F5
I3
I0
I6
tI2
tp55
F-2.093
s((F4
F2
F4
I3
I1
I6
tI3
tp56
F-0.69999999999999996
s((F4
F4
F5
I0
I0
I6
tI1
tp57
F-2.9999999999999867
s((F4
F3
F5
I0
I0
I6
tI3
tp58
F-2.4867599990960185
s((F2
F1
F4
I1
I3
I6
tI3
tp59
F-0.69999999999999996
s((F1
F1
F3
I1
I1
I6
tI2
tp60
F0.69999999999999996
s((F3
F4
F4
I0
I1
I6
tI3
tp61
F-0.97299999999999998
s((F2
F3
F5
I0
I0
I6
tI1
tp62
F-2.5797554285627129
s((F0
F4
F4
I0
I0
I6
tI3
tp63
F-0.69999999999999996
s((F3
F2
F5
I3
I0
I6
tI3
tp64
F-2.0999999999999996
s((F1
F2
F4
I0
I0
I2
tI2
tp65
F-1.9508206340000001
s((F4
F4
F4
I2
I1
I6
tI1
tp66
F2.4246599999999998
s((F3
F3
F4
I3
I1
I6
tI3
tp67
F-0.33561675369648075
s((F3
F2
F5
I1
I0
I6
tI1
tp68
F3.8807750938533419
s((F2
F0
F4
I1
I0
I6
tI1
tp69
F-1.3999999999999999
s((F4
F2
F4
I0
I1
I6
tI2
tp70
F-0.90999999999999992
s((F4
F3
F4
I0
I0
I6
tI1
tp71
F-2.9998031699999999
s((F3
F1
F5
I2
I1
I6
tI2
tp72
F-0.69999999999999996
s((F3
F3
F5
I1
I0
I2
tI1
tp73
F-1.8199999999999998
s((F3
F3
F5
I0
I0
I6
tI1
tp74
F-2.9996282103873999
s((F3
F3
F4
I0
I0
I6
tI2
tp75
F-1.846527592448
s((F3
F3
F5
I0
I0
I4
tI2
tp76
F-0.90999999999999992
s((F0
F2
F5
I0
I6
I6
tI3
tp77
F-1.3999999999999999
s((F2
F3
F4
I0
I1
I6
tI2
tp78
F-0.27441577785097193
s((F2
F2
F5
I1
I2
I6
tI2
tp79
F-0.97299999999999998
s((F3
F2
F4
I1
I0
I6
tI1
tp80
F-1.3999999999999999
s((F4
F3
I5
I0
I0
I2
tI2
tp81
F0
s((F1
F3
F5
I0
I0
I6
tI3
tp82
F-2.0999999999999996
s((F1
F4
F5
I0
I0
I6
tI1
tp83
F-2.0386730000000002
s((F1
F2
F4
I0
I0
I2
tI1
tp84
F-2.5199999999999996
s((F3
F4
F4
I3
I1
I6
tI1
tp85
F-0.42472625264034325
s((F3
F2
F5
I5
I1
I6
tI3
tp86
F-0.90999999999999992
s((F4
F1
F4
I1
I0
I6
tI2
tp87
F-0.69999999999999996
s((F4
F3
F5
I3
I0
I6
tI2
tp88
F-1.96368850559
s((F4
F4
I5
I0
I1
I6
tI3
tp89
F-2.8955651615518141
s((F4
F1
F5
I0
I1
I4
tI1
tp90
F0
s((F1
F2
F5
I1
I0
I6
tI1
tp91
F-0.48999999999999999
s((F2
F2
F5
I1
I0
I6
tI2
tp92
F-2.0999999999999996
s((F4
F1
F5
I0
I2
I6
tI1
tp93
F-2.919
s((F4
F2
F3
I0
I1
I6
tI1
tp94
F-0.69999999999999996
s((F2
F3
F4
I0
I0
I6
tI3
tp95
F-2.9220823579990163
s((F3
F3
F5
I2
I0
I6
tI2
tp96
F-0.70895999999999981
s((F1
F4
F3
I0
I1
I6
tI3
tp97
F0
s((F2
F2
F5
I0
I0
I6
tI2
tp98
F-2.2965954528126966
s((F2
F1
F5
I0
I0
I6
tI1
tp99
F0.0083875185401578456
s((F3
F3
F5
I2
I1
I6
tI1
tp100
F-2.8119000000000001
s((F4
F1
F5
I1
I0
I6
tI3
tp101
F-0.9999321491558143
s((F5
F4
F4
I0
I0
I6
tI3
tp102
F-2.9999946855899999
s((F1
F2
F5
I3
I1
I6
tI2
tp103
F0.038338507343975259
s((F1
F2
F5
I0
I1
I6
tI3
tp104
F-0.69999999999999996
s((F2
F2
F5
I4
I1
I6
tI2
tp105
F-0.21000000000000002
s((F2
F2
F4
I0
I0
I6
tI3
tp106
F-0.63125452679496896
s((F4
F3
I5
I1
I0
I4
tI3
tp107
F0
s((F3
F2
F5
I0
I0
I6
tI2
tp108
F-2.9998490969999998
s((F3
F4
F5
I1
I0
I2
tI3
tp109
F-0.21000000000000002
s((F4
F2
F5
I0
I1
I6
tI1
tp110
F-2.6104570522446662
s((F2
F2
F5
I3
I0
I6
tI2
tp111
F-2.73
s((F3
F1
F5
I1
I0
I6
tI3
tp112
F-0.69999999999999996
s((F4
F0
F5
I1
I1
I6
tI3
tp113
F-0.69999999999999996
s((F4
I5
F5
I0
I0
I0
tI2
tp114
F0
s((F4
F2
F5
I0
I1
I2
tI3
tp115
F0
s((F1
F1
F5
I3
I0
I6
tI2
tp116
F-0.69999999999999996
s((F3
F2
F5
I2
I1
I6
tI2
tp117
F-0.69999999999999996
s((F3
F2
F5
I0
I5
I6
tI1
tp118
F-2.0999999999999996
s((F4
F3
F5
I6
I1
I6
tI3
tp119
F-0.69999999999999996
s((F3
F3
F5
I0
I1
I4
tI2
tp120
F-0.70000413343000001
s((F2
F3
F4
I0
I0
I2
tI2
tp121
F-1.8199999999999998
s((F2
F4
F5
I0
I1
I6
tI2
tp122
F-0.69999999999999996
s((F3
F3
F5
I3
I1
I6
tI2
tp123
F-0.72456999999999994
s((F5
F2
F5
I0
I1
I6
tI3
tp124
F-2.3729999999999998
s((F4
F4
F5
I1
I0
I6
tI3
tp125
F-2.3615432905615128
s((F2
F3
F5
I0
I1
I4
tI3
tp126
F0
s((F4
F4
F4
I0
I1
I6
tI3
tp127
F-2.2804494174502716
s((F2
F2
F5
I0
I0
I2
tI1
tp128
F0
s((F5
F4
I5
I0
I1
I6
tI1
tp129
F-2.398966631403189
s((F3
F4
F4
I0
I0
I4
tI2
tp130
F0.68109999999999982
s((F4
F2
F5
I0
I6
I6
tI1
tp131
F-2.9756999999999998
s((F3
F4
F4
I0
I0
I6
tI3
tp132
F-2.7851900915204313
s((F2
F3
F4
I3
I1
I6
tI3
tp133
F-2.0999999999999996
s((F4
F3
F5
I2
I1
I6
tI1
tp134
F-0.9919
s((F4
F2
F5
I1
I2
I6
tI3
tp135
F-0.97299999999999998
s((F2
F4
F5
I0
I0
I2
tI2
tp136
F-2.0999999999999996
s((F3
F3
F4
I2
I1
I6
tI1
tp137
F-2.2948799999999996
s((F2
F4
F3
I0
I1
I6
tI1
tp138
F-0.69999999999999996
s((F3
F4
F5
I0
I0
I4
tI3
tp139
F-1.6423399999999999
s((F3
F4
F5
I0
I1
I4
tI2
tp140
F-0.78859060000000003
s((F2
F3
F5
I0
I5
I6
tI1
tp141
F-2.5199999999999996
s((F3
F4
F5
I0
I0
I6
tI2
tp142
F-2.9999540710924424
s((F2
F3
F5
I0
I0
I2
tI1
tp143
F-1.3999999999999999
s((F1
F1
F5
I0
I1
I6
tI1
tp144
F1.3999999999999999
s((F3
F2
F5
I0
I1
I6
tI2
tp145
F-1.3300000000000001
s((F3
F2
F3
I1
I0
I6
tI2
tp146
F-0.69999999999999996
s((F2
F3
F4
I2
I1
I6
tI3
tp147
F-0.69999999999999996
s((F4
F3
F4
I0
I0
I6
tI3
tp148
F-2.9993439
s((F3
F4
I5
I1
I0
I6
tI2
tp149
F-2.0999999999999996
s((F3
F3
F5
I5
I1
I6
tI1
tp150
F-1.6099999999999999
s((F3
F3
F5
I0
I0
I6
tI3
tp151
F-2.8257996325631574
s((F5
F5
I5
I1
I0
I6
tI1
tp152
F-2.5592363128990012
s((F4
F4
F5
I2
I1
I6
tI2
tp153
F0
s((F1
F2
F5
I0
I0
I6
tI3
tp154
F-2.0999999999999996
s((F3
F3
F5
I0
I0
I2
tI1
tp155
F-0.62999999999999989
s((F3
F3
F4
I0
I1
I6
tI1
tp156
F-0.97299999999999998
s((F4
F3
F5
I6
I1
I6
tI1
tp157
F-0.90999999999999992
s((F2
F4
F4
I2
I1
I6
tI3
tp158
F-2.3660069999999997
s((F4
F1
F5
I0
I0
I6
tI2
tp159
F-2.9998031699999999
s((F1
F3
F5
I0
I1
I6
tI2
tp160
F3.5279999999999996
s((F3
F1
F4
I1
I3
I6
tI3
tp161
F-1.3999999999999999
s((F1
F3
F4
I0
I1
I6
tI3
tp162
F0
s((F4
F3
F5
I1
I0
I6
tI2
tp163
F0.76723135215464922
s((F3
F3
F3
I0
I0
I6
tI2
tp164
F-1.8199999999999998
s((F1
F3
F5
I0
I1
I6
tI3
tp165
F0.18869659731418242
s((F4
F2
F5
I0
I0
I6
tI2
tp166
F-2.9999999798968093
s((F2
F1
F5
I0
I6
I6
tI3
tp167
F-2.0999999999999996
s((F4
F2
F5
I0
I0
I4
tI3
tp168
F0
s((F4
F3
F4
I0
I0
I6
tI2
tp169
F-2.2998031700000001
s((F3
I5
F5
I0
I0
I0
tI2
tp170
F0
s((F2
F2
F4
I1
I0
I6
tI2
tp171
F-1.6834830601252087
s((F3
F2
F4
I1
I0
I6
tI3
tp172
F-0.99930062909246364
s((F3
F3
F5
I1
I0
I6
tI2
tp173
F-1.4200000194598139
s((F3
F3
F5
I2
I1
I6
tI3
tp174
F-0.039900000000000269
s((F3
F4
F4
I3
I0
I6
tI2
tp175
F-2.919
s((F5
F1
I5
I1
I0
I6
tI2
tp176
F-0.90999999999999992
s((F2
F2
F4
I0
I3
I6
tI2
tp177
F2.0999999999999996
s((F4
F3
F5
I3
I1
I6
tI1
tp178
F-2.0999999999999996
s((F3
F1
F5
I0
I1
I6
tI1
tp179
F-0.61356896395797134
s((F4
F3
I5
I1
I0
I4
tI1
tp180
F0
s((F4
F3
F5
I5
I1
I6
tI2
tp181
F-0.69999999999999996
s((F3
F4
F5
I1
I0
I2
tI1
tp182
F-0.06999999999999984
s((F3
F1
F5
I1
I0
I6
tI1
tp183
F-0.69999999999999996
s((F4
F0
F5
I1
I0
I6
tI3
tp184
F-0.69999999999999996
s((F2
F1
F4
I1
I0
I6
tI3
tp185
F-0.14695163240569276
s((F4
F2
F4
I0
I0
I6
tI1
tp186
F-1.6099999999999999
s((F1
F1
F5
I0
I0
I6
tI1
tp187
F-1.0444420000000001
s((F4
F2
F5
I1
I7
I6
tI2
tp188
F-0.69999999999999996
s((F3
F3
F5
I0
I0
I4
tI3
tp189
F-0.90999999999999992
s((F4
F4
I5
I0
I0
I6
tI2
tp190
F-2.9933767256545862
s((F1
F2
F4
I0
I0
I6
tI3
tp191
F-1.1713513
s((F0
F3
F4
I1
I0
I6
tI1
tp192
F1.2727301560387323
s((F3
F3
F5
I0
I1
I2
tI1
tp193
F0.63000000000000012
s((F5
F4
I5
I0
I0
I6
tI2
tp194
F-2.999999996125795
s((F2
F4
F4
I3
I1
I6
tI3
tp195
F1.3999999999999999
s((F4
F4
F5
I1
I0
I6
tI1
tp196
F-1.1986289009696702
s((F2
F3
F5
I0
I1
I4
tI1
tp197
F-1.3999999999999999
s((F5
F3
I5
I1
I0
I6
tI3
tp198
F-2.8693888990472125
s((F5
F4
I5
I1
I0
I6
tI2
tp199
F-2.8197812999999998
s((F3
F4
F5
I0
I1
I6
tI1
tp200
F-1.0613902485603017
s((F3
F1
F5
I1
I2
I6
tI1
tp201
F0
s((F4
F4
F5
I0
I0
I2
tI1
tp202
F-2.99999999988255
s((F2
F4
F5
I0
I0
I6
tI1
tp203
F-2.9835569900992542
s((F5
F5
I5
I0
I0
I6
tI2
tp204
F-3
s((F1
F2
F5
I0
I5
I6
tI2
tp205
F-1.3999999999999999
s((F2
F4
F4
I0
I1
I4
tI2
tp206
F-2.3099999999999996
s((F2
F4
F4
I0
I1
I6
tI3
tp207
F-0.97299999999999998
s((F3
F4
F4
I0
I0
I6
tI1
tp208
F-2.2473003
s((F4
F3
F5
I1
I2
I6
tI1
tp209
F-0.93627099999999996
s((F2
F2
F5
I1
I2
I6
tI1
tp210
F-0.69999999999999996
s((F4
F3
F5
I2
I1
I6
tI3
tp211
F-0.35559999999999992
s((F3
F3
F5
I3
I0
I6
tI3
tp212
F-2.73
s((F4
F3
F5
I0
I0
I2
tI1
tp213
F0
s((F4
F2
F5
I3
I1
I6
tI3
tp214
F-1.6099999999999999
s((F3
F4
F4
I3
I1
I6
tI2
tp215
F0
s((F3
F2
F4
I0
I0
I6
tI2
tp216
F2.4009999999999998
s((F4
F1
F5
I0
I1
I6
tI1
tp217
F-2.4582418255163749
s((F1
F4
F5
I3
I1
I4
tI2
tp218
F0.016102173084469606
s((F3
F2
F4
I0
I1
I6
tI1
tp219
F-0.99927100000000002
s((F2
F0
F5
I0
I1
I6
tI1
tp220
F-0.90999999999999992
s((F2
F0
F3
I0
I0
I6
tI2
tp221
F-0.69999999999999996
s((F3
F4
F5
I0
I0
I2
tI2
tp222
F-2.919
s((F3
F2
F5
I0
I0
I4
tI2
tp223
F0
s((F5
F5
I5
I1
I0
I6
tI3
tp224
F0.92836427136083932
s((F1
F2
F5
I0
I0
I6
tI1
tp225
F-2.1932399999999999
s((F3
F3
F5
I0
I0
I2
tI3
tp226
F-2.2320522000000045e-07
s((F3
F3
F4
I1
I0
I6
tI3
tp227
F-0.97358707379494835
s((F4
F2
F5
I1
I0
I6
tI3
tp228
F0.33716522734083965
s((F3
F2
F5
I1
I1
I6
tI2
tp229
F-0.90999999999999992
s((F1
F3
F5
I0
I0
I2
tI1
tp230
F-1.3999999999999999
s((F1
F4
F4
I0
I1
I6
tI3
tp231
F-0.69999999999999996
s((F2
F1
F4
I0
I3
I6
tI3
tp232
F-1.3999999999999999
s((F5
F4
I5
I0
I1
I6
tI2
tp233
F-0.9861034026697133
s((F4
F3
F4
I0
I1
I6
tI2
tp234
F-1.3929999999999998
s((F5
I5
I5
I0
I0
I0
tI3
tp235
F0
s((F3
F3
F5
I0
I1
I6
tI2
tp236
F-1.9626387904883389
s((F4
F4
F5
I0
I0
I2
tI3
tp237
F-2.2999999999637013
s((F4
F2
F5
I0
I0
I4
tI1
tp238
F0
s((F3
F2
F3
I0
I1
I6
tI1
tp239
F0
s((F2
F2
F4
I1
I0
I4
tI3
tp240
F-0.69999999999999996
s((F4
F3
F5
I1
I2
I6
tI3
tp241
F-0.69999999999999996
s((F1
F4
F4
I1
I0
I6
tI2
tp242
F0
s((F3
F3
F5
I0
I1
I4
tI1
tp243
F-2.1269940951000001
s((F4
F3
F5
I3
I1
I6
tI3
tp244
F-2.3763328259999996
s((F4
F1
F4
I0
I1
I6
tI3
tp245
F-2.0999999999999996
s((F4
F2
F5
I0
I3
I6
tI1
tp246
F-2.9756999999999998
s((F3
F1
F5
I0
I1
I6
tI3
tp247
F-0.69999999999999996
s((F3
F3
F5
I1
I3
I6
tI3
tp248
F-0.99369988479999993
s((F4
F2
I5
I1
I3
I6
tI1
tp249
F-1.6099999999999999
s((F1
F2
F4
I1
I0
I2
tI1
tp250
F0.7056
s((F4
F0
F5
I1
I0
I6
tI1
tp251
F-0.90999999999999992
s((F4
F2
F4
I0
I1
I6
tI1
tp252
F-0.27300000000000002
s((F3
F3
F4
I3
I0
I6
tI1
tp253
F-2.73
s((F1
F3
F4
I0
I0
I6
tI1
tp254
F0
s((F2
F2
F5
I0
I0
I2
tI2
tp255
F0
s((F4
F3
F5
I0
I1
I6
tI3
tp256
F-2.9075699999997973
s((F2
F2
F5
I0
I1
I6
tI3
tp257
F-2.9292584531689561
s((F1
F3
F4
I3
I1
I6
tI2
tp258
F0.69999999999999996
s((F2
F3
F5
I0
I5
I6
tI3
tp259
F-2.0999999999999996
s((F4
F3
F5
I0
I0
I4
tI3
tp260
F0
s((F4
F3
F3
I0
I1
I4
tI3
tp261
F0
s((F4
F2
F5
I0
I0
I6
tI1
tp262
F-2.9999999970297764
s((F4
F2
F5
I1
I0
I6
tI1
tp263
F-1.00891
s((F2
F3
F5
I0
I0
I6
tI2
tp264
F-1.4248569684238952
s((F5
F3
I5
I1
I0
I6
tI1
tp265
F-2.9082776568667361
s((F2
F4
F5
I3
I1
I6
tI1
tp266
F-0.69999999999999996
s((F3
F4
F5
I0
I1
I6
tI3
tp267
F-1.9530000000000001
s((F5
F2
I5
I1
I0
I6
tI3
tp268
F-1.003401985651093
s((F2
F4
F5
I0
I0
I6
tI3
tp269
F-2.9848291073327999
s((F4
F3
F4
I2
I1
I6
tI1
tp270
F-0.90999999999999992
s((F3
F3
F5
I5
I1
I6
tI2
tp271
F-2.0999999999999996
s((F2
F4
F4
I0
I1
I6
tI1
tp272
F-0.95977000000000001
s((F0
F4
F3
I0
I1
I6
tI3
tp273
F0
s((F3
F3
F4
I0
I1
I4
tI1
tp274
F-0.69999999999999996
s((F3
F3
F5
I3
I0
I6
tI1
tp275
F-2.0197099999999999
s((F2
F4
F4
I0
I0
I6
tI2
tp276
F-2.0999999999999996
s((F2
F4
F4
I0
I1
I2
tI3
tp277
F1.0500000000000003
s((F3
F4
F4
I0
I1
I6
tI2
tp278
F2.0325348669252707
s((F2
F1
F5
I3
I1
I6
tI1
tp279
F-0.69999999999999996
s((F4
F2
F3
I2
I1
I6
tI2
tp280
F-0.69999999999999996
s((F3
F4
F5
I2
I1
I6
tI2
tp281
F0.047635434000000004
s((F4
F1
F5
I0
I1
I6
tI3
tp282
F-2.2368453800033015
s((F3
F3
F4
I0
I0
I6
tI1
tp283
F-2.2813495539545374
s((F1
F3
F4
I0
I0
I6
tI3
tp284
F-2.1645633302152136
s((F2
F3
F5
I3
I1
I6
tI1
tp285
F-0.97299999999999998
s((F2
F2
I5
I1
I0
I6
tI3
tp286
F-2.0999999999999996
s((F2
F1
F4
I0
I0
I2
tI2
tp287
F-2.0089999999999999
s((F3
F3
F5
I1
I0
I6
tI1
tp288
F-0.84599995255772953
s((F4
F2
F3
I1
I0
I6
tI2
tp289
F-2.4377343900000001
s((F5
F4
F4
I0
I0
I6
tI2
tp290
F-2.9999822853000002
s((F1
F3
F4
I1
I0
I6
tI1
tp291
F-1.3999999999999999
s((F4
F3
F5
I6
I1
I6
tI2
tp292
F-0.69999999999999996
s((F1
F4
F4
I0
I1
I6
tI1
tp293
F-0.040179909130134882
s((F4
F3
F5
I1
I0
I4
tI2
tp294
F-0.001701000000000002
s((F4
F3
F5
I6
I1
I4
tI3
tp295
F0.69999999999999996
s((F3
F2
F5
I0
I0
I6
tI3
tp296
F-2.2996605564232793
s((F4
F2
F5
I0
I1
I6
tI2
tp297
F-2.4894691129589983
s((F3
F2
F5
I0
I6
I6
tI2
tp298
F-2.73
s((F3
F2
F3
I0
I1
I6
tI3
tp299
F-0.69999999999999996
s((F2
F2
F5
I0
I0
I6
tI3
tp300
F-2.87372672390191
s((F3
F3
I5
I1
I7
I6
tI2
tp301
F-0.97299999999999998
s((F3
F2
F5
I0
I2
I6
tI3
tp302
F-2.0999999999999996
s((F4
F3
F4
I0
I1
I4
tI3
tp303
F0
s((F3
F2
F5
I2
I1
I6
tI1
tp304
F-0.69999999999999996
s((F5
F3
I5
I1
I3
I4
tI1
tp305
F0
s((F5
F3
F4
I0
I0
I6
tI1
tp306
F-2.73
s((F4
F3
F4
I3
I1
I6
tI1
tp307
F-0.69999999999999996
s((F5
F4
I5
I0
I0
I6
tI1
tp308
F-2.9999999960827415
s((F4
F4
F3
I2
I1
I4
tI2
tp309
F-0.69999999999999996
s((F2
F4
F5
I0
I1
I6
tI3
tp310
F-1.0125010000000001
s((F4
F4
F5
I0
I0
I2
tI2
tp311
F-2.2999999999822176
s((F4
F2
F5
I0
I0
I2
tI2
tp312
F0
s((F0
F1
F5
I0
I0
I6
tI3
tp313
F-1.3999999999999999
s((F4
F2
F3
I2
I1
I6
tI1
tp314
F-0.69999999999999996
s((F4
F4
F4
I0
I1
I4
tI3
tp315
F1.7667851385965974
s((F4
F3
F5
I0
I1
I6
tI1
tp316
F-2.9837949255761402
s((F4
F1
F5
I1
I0
I6
tI1
tp317
F-0.99998031700000001
s((F2
F2
F5
I6
I1
I6
tI3
tp318
F1.7410399999999997
s((F0
F2
F5
I1
I0
I6
tI1
tp319
F0
s((F4
F3
F5
I0
I0
I6
tI2
tp320
F-2.8361999983176878
s((F3
F4
F4
I0
I0
I6
tI2
tp321
F-2.0197099999999999
s((F2
F3
F4
I0
I1
I6
tI3
tp322
F-0.50449364737353364
s((F4
F3
F5
I0
I0
I4
tI1
tp323
F0
s((F2
F3
F5
I1
I2
I6
tI2
tp324
F0
s((F3
F4
F4
I0
I1
I6
tI1
tp325
F-2.3099999999999996
s((F4
F4
F5
I3
I1
I6
tI3
tp326
F-0.7629999999999999
s((F2
F3
F4
I1
I3
I6
tI3
tp327
F-0.69999999999999996
s((F3
F2
F5
I0
I1
I2
tI3
tp328
F0
s((F2
F4
F5
I3
I1
I6
tI3
tp329
F-0.69999999999999996
s((F3
F4
F5
I0
I0
I6
tI3
tp330
F-2.8975998468433355
s((F2
F3
F5
I0
I0
I2
tI2
tp331
F-2.73
s((F3
F2
F5
I3
I1
I6
tI3
tp332
F1.3369999999999997
s((F4
F2
F5
I2
I1
I6
tI2
tp333
F-0.97299999999999998
s((F3
F2
F5
I1
I0
I6
tI2
tp334
F-2.3999507572702452
s((F5
F2
I5
I1
I0
I6
tI1
tp335
F-1.07301439
s((F4
F3
F4
I2
I1
I6
tI3
tp336
F-0.69999999999999996
s((F2
F4
F5
I0
I1
I4
tI3
tp337
F-1.7178
s((F3
F3
F5
I0
I0
I6
tI2
tp338
F-2.9996938199999978
s((F2
F3
F4
I0
I0
I6
tI2
tp339
F-2.1280905324770001
s((F4
F3
F5
I0
I1
I4
tI3
tp340
F-1.2487999999999999
s((F1
F4
F5
I0
I1
I6
tI3
tp341
F0
s((F3
F3
F4
I0
I1
I4
tI3
tp342
F-0.17366903400000006
s((F1
F3
F5
I1
I0
I2
tI2
tp343
F2.0999999999999996
s((F3
F1
F3
I0
I1
I6
tI3
tp344
F-0.90999999999999992
s((F4
F4
F5
I1
I0
I2
tI1
tp345
F-0.79796080000000003
s((F4
F1
F5
I0
I0
I6
tI3
tp346
F-2.9998031699999999
s((F3
F3
F4
I0
I0
I6
tI3
tp347
F-1.0684092853
s((F4
F4
I5
I0
I1
I6
tI2
tp348
F-2.9463964218145264
s((F1
F3
F4
I0
I1
I6
tI2
tp349
F0.61846929661627337
s((F3
F2
I5
I0
I0
I2
tI3
tp350
F0
s((F4
F4
F5
I0
I1
I4
tI1
tp351
F0.54708758141665159
s((F4
F3
F5
I1
I0
I6
tI1
tp352
F-2.3993195999998895
s((F2
F2
F5
I1
I0
I6
tI1
tp353
F-0.99652762719999999
s((F3
F3
F5
I1
I4
I6
tI2
tp354
F-0.90999999999999992
s((F1
F2
F4
I0
I0
I6
tI2
tp355
F-1.9427254517183519
s((F3
F3
F4
I1
I0
I6
tI1
tp356
F-0.97299999999999998
s((F3
F1
F5
I1
I0
I6
tI2
tp357
F-0.9919
s((F4
F0
F3
I0
I1
I4
tI1
tp358
F0
s((F2
F1
F5
I0
I1
I6
tI3
tp359
F-2.0999999999999996
s((F1
F3
F4
I1
I0
I6
tI3
tp360
F-1.3999999999999999
s((F4
F4
F3
I0
I1
I6
tI3
tp361
F-0.69999999999999996
s((F3
F3
F5
I1
I0
I6
tI3
tp362
F-1.0000002894617082
s((F3
F4
F2
I0
I0
I6
tI1
tp363
F5.5999999999999996
s((F2
F3
F4
I0
I1
I6
tI1
tp364
F-1.4119000000000002
s((F5
F1
I5
I1
I0
I6
tI3
tp365
F-0.99756999999999996
s((F4
F3
F1
I2
I1
I6
tI2
tp366
F-0.90999999999999992
s((F2
F2
F5
I0
I1
I4
tI3
tp367
F0
s((F2
F4
F4
I0
I3
I6
tI1
tp368
F-1.3999999999999999
s((F3
F4
F5
I0
I0
I4
tI1
tp369
F-0.69999999999999996
s((F4
F3
F5
I0
I4
I6
tI2
tp370
F-2.0999999999999996
s((F1
F2
F5
I0
I1
I4
tI1
tp371
F0
s((F4
F4
F3
I1
I0
I6
tI1
tp372
F-0.9919
s((F3
F3
F5
I0
I2
I6
tI3
tp373
F-2.0999999999999996
s((F3
F2
F3
I0
I0
I6
tI3
tp374
F-1.3300000000000001
s((F2
F3
F5
I0
I3
I6
tI3
tp375
F-1.5681400000000001
s((F3
F2
F5
I2
I1
I6
tI3
tp376
F-0.75879999999999992
s((F0
F1
F3
I0
I0
I4
tI1
tp377
F-0.69999999999999996
s((F2
F3
F4
I1
I0
I6
tI3
tp378
F-0.9919
s((F4
F3
F4
I3
I1
I6
tI3
tp379
F-0.69999999999999996
s((F3
F3
F5
I1
I2
I6
tI1
tp380
F-0.97669684000000001
s((F2
F3
F5
I0
I1
I6
tI3
tp381
F-1.8252709999999999
s((F1
F1
F4
I0
I0
I6
tI1
tp382
F-0.69999999999999996
s((F3
F3
F5
I0
I1
I2
tI2
tp383
F3.5
s((F4
F2
F5
I2
I1
I6
tI3
tp384
F-0.18440800000000018
s((F4
F4
F5
I1
I0
I6
tI2
tp385
F1.4110091133617153
s((F5
F4
F5
I1
I0
I6
tI1
tp386
F-2.9196091638910557
s((F4
F4
F4
I0
I1
I4
tI1
tp387
F-1.1200000000000001
s((F4
F2
F5
I0
I0
I4
tI2
tp388
F0
s((F4
F3
F5
I3
I1
I6
tI2
tp389
F-0.29757
s((F5
F5
I5
I0
I0
I6
tI1
tp390
F-3
s((F2
F4
F4
I0
I1
I6
tI2
tp391
F-0.97299999999999998
s((F2
F3
F4
I0
I3
I6
tI2
tp392
F0
s((F2
F4
F5
I0
I0
I2
tI3
tp393
F0
s((F2
F4
F4
I0
I0
I6
tI1
tp394
F-1.99750439
s((F4
F2
F5
I3
I1
I6
tI2
tp395
F-0.98107029999999995
s((F3
F4
F4
I0
I1
I4
tI2
tp396
F0.5192186999999997
s((F3
F4
F5
I0
I0
I4
tI2
tp397
F0
s((F3
F4
F5
I0
I1
I4
tI3
tp398
F-0.9919
s((F3
F4
F5
I0
I0
I6
tI1
tp399
F-2.7731998565109297
s((F3
F2
F5
I0
I1
I6
tI3
tp400
F0.011286103670795078
s((F3
F4
F5
I0
I0
I2
tI3
tp401
F-2.2757000000000001
s((F2
F3
F4
I2
I1
I6
tI2
tp402
F5.8382951769935625
s((F3
F4
I5
I1
I0
I6
tI3
tp403
F-0.90999999999999992
s((F3
F2
F5
I1
I0
I2
tI2
tp404
F0.69999999999999996
s((F4
F0
F5
I0
I1
I6
tI2
tp405
F-1.3300000000000001
s((F5
F4
F4
I1
I0
I6
tI1
tp406
F-0.90999999999999992
s((F1
F3
F5
I0
I0
I6
tI1
tp407
F-2.0089999999999999
s((F4
F3
F5
I1
I3
I6
tI1
tp408
F-0.99171100000000001
s((F3
F3
F5
I0
I0
I4
tI1
tp409
F-0.74479999999999991
s((F3
F4
F5
I3
I0
I6
tI1
tp410
F-2.0999999999999996
s((F3
F3
F5
I0
I0
I2
tI2
tp411
F-2.919
s((F1
F1
F5
I0
I1
I4
tI3
tp412
F0
s((F4
F1
F5
I0
I0
I6
tI1
tp413
F-2.9999049272390099
s((F4
F3
F5
I3
I0
I6
tI1
tp414
F-2.9978129999999998
s((F0
F1
F5
I0
I1
I4
tI2
tp415
F0.42000000000000004
s((F4
F2
F5
I0
I2
I6
tI3
tp416
F-2.9998031699999999
s((F4
F1
F5
I0
I5
I6
tI1
tp417
F-2.0999999999999996
s((F2
F1
F4
I0
I0
I6
tI3
tp418
F-2.2879528699999998
s((F3
F3
F4
I0
I1
I6
tI3
tp419
F-0.36719603219329811
s((F4
F3
F5
I1
I0
I6
tI3
tp420
F-2.3999999999997175
s((F3
F3
F5
I0
I1
I6
tI3
tp421
F-2.7877900410359087
s((F0
F3
F5
I0
I0
I6
tI2
tp422
F-1.3999999999999999
s((F4
F2
F5
I0
I0
I6
tI3
tp423
F-2.9999999799115149
s((F0
F4
F5
I1
I0
I6
tI3
tp424
F1.2786059999999999
s((F1
F3
F4
I0
I0
I2
tI1
tp425
F-0.69999999999999996
s((F3
I5
F5
I0
I0
I0
tI3
tp426
F0
s((F3
F3
F5
I2
I0
I6
tI1
tp427
F-0.69999999999999996
s((F2
F2
F5
I0
I0
I6
tI1
tp428
F-2.9907034279827713
s((F2
F2
F4
I1
I0
I6
tI3
tp429
F-1.9016931583999999
s((F5
F4
F5
I0
I0
I6
tI3
tp430
F-2.9999999994262305
s((F3
F3
F5
I2
I1
I6
tI2
tp431
F-0.9015449741199999
s((F4
F2
F5
I1
I0
I6
tI2
tp432
F-2.3141634873738703
s((F3
F5
F5
I0
I0
I6
tI2
tp433
F-2.2189999999999999
s((F3
F4
F4
I1
I1
I6
tI3
tp434
F-1.3102668962184914
s((F4
F3
F5
I0
I1
I6
tI2
tp435
F-2.8295316256285479
s((F4
F1
F5
I1
I0
I6
tI2
tp436
F-0.15117135632136214
s((F4
F4
I5
I0
I0
I6
tI3
tp437
F-2.9865609656135197
s((F3
F2
F4
I3
I0
I6
tI1
tp438
F-1.3999999999999999
s((F4
F3
F5
I0
I0
I6
tI1
tp439
F-2.999999951852625
s((F2
F3
F4
I1
I0
I6
tI1
tp440
F-1.0847817817396963
s((F2
F3
F5
I0
I0
I6
tI3
tp441
F-2.9996011789358787
s((F5
F3
I5
I1
I0
I6
tI2
tp442
F0.48901714951990155
s((F5
F4
I5
I1
I0
I6
tI3
tp443
F-1.1252710000000001
s((F0
F2
F5
I0
I1
I6
tI3
tp444
F2.7999999999999998
s((F3
F4
F5
I0
I1
I6
tI2
tp445
F-1.6155129332936387
s((F5
F2
I5
I1
I0
I6
tI2
tp446
F-1
s((F2
F4
F5
I0
I0
I6
tI2
tp447
F-2.9756999999999998
s((F1
F1
F5
I0
I0
I4
tI1
tp448
F-0.69999999999999996
s((F5
F5
I5
I0
I0
I6
tI3
tp449
F-3
s((F4
F3
F5
I1
I4
I6
tI3
tp450
F-0.97299999999999998
s((F1
F3
I5
I0
I3
I4
tI1
tp451
F0
s.