(dp1
((I4
I3
I4
I3
I0
I6
tI2
tp2
F1.6084015913228782
s((F4
F4
F5
I1
I0
I4
tI3
tp3
F-0.46391941020000016
s((I2
I3
I5
I1
I3
I6
tI2
tp4
F-0.14867460702035395
s((I4
I4
I5
I0
I0
I4
tI1
tp5
F-0.09485749242563743
s((I4
I4
I4
I1
I3
I6
tI1
tp6
F-0.50570410633049112
s((I2
I3
I5
I1
I5
I6
tI2
tp7
F-0.52137468512780927
s((I2
I3
I5
I2
I0
I4
tI2
tp8
F1.4100854468150659
s((I3
I3
I2
I3
I3
I6
tI1
tp9
F2.0999999999999996
s((I2
I1
I4
I3
I5
I6
tI3
tp10
F2.0999999999999996
s((I4
I4
I4
I2
I3
I6
tI1
tp11
F-0.74248307917564971
s((I5
I4
I4
I0
I0
I6
tI1
tp12
F-2.0999999999999996
s((I4
I2
I1
I1
I2
I6
tI1
tp13
F-0.69999999999999996
s((I3
I1
I4
I1
I2
I6
tI3
tp14
F-0.92610066303999994
s((I5
I4
I5
I3
I3
I6
tI3
tp15
F0.97491790936851197
s((I3
I3
I2
I1
I0
I4
tI2
tp16
F-1.3999999999999999
s((F2
F3
F5
I1
I0
I6
tI2
tp17
F-2.7167957840365364
s((I3
I1
I5
I1
I6
I6
tI2
tp18
F0.69999999999999996
s((I5
I4
I5
I0
I0
I4
tI3
tp19
F0.02836692289665033
s((I4
I3
I4
I2
I2
I4
tI3
tp20
F1.4556486695403521
s((I4
I2
I3
I1
I3
I6
tI1
tp21
F0.87971594748174653
s((I3
I4
I3
I1
I0
I6
tI3
tp22
F-0.87952564369830655
s((I3
I1
I5
I0
I0
I6
tI1
tp23
F-1.5936795700000002
s((I4
I3
I3
I1
I0
I6
tI1
tp24
F-1.003401013629017
s((I4
I3
I5
I2
I6
I6
tI3
tp25
F0.70966471327546277
s((I0
I2
I5
I1
I0
I4
tI3
tp26
F0.69999999999999996
s((F4
F2
F5
I0
I0
I2
tI1
tp27
F0
s((I2
I4
I4
I1
I0
I6
tI2
tp28
F-0.23999959792276915
s((I5
I0
I5
I2
I3
I6
tI1
tp29
F1.5668799999999998
s((I2
I2
I5
I0
I0
I0
tI2
tp30
F-0.99552094869611862
s((F5
F4
F5
I2
I0
I6
tI3
tp31
F2.49327460899713
s((I2
I3
I2
I3
I3
I6
tI1
tp32
F2.0999999999999996
s((I5
I3
I1
I2
I1
I6
tI1
tp33
F1.3352027783736942
s((I1
I3
I5
I2
I2
I6
tI2
tp34
F0.69999999999999996
s((I1
I2
I5
I3
I0
I4
tI3
tp35
F1.3999999999999999
s((I4
I4
I5
I0
I0
I6
tI1
tp36
F-2.9732069099861422
s((I4
I0
I4
I1
I0
I6
tI2
tp37
F0.72605513905047303
s((I2
I3
I5
I1
I2
I6
tI1
tp38
F-0.69999999999999996
s((I3
I2
I4
I1
I3
I4
tI2
tp39
F-1.3999999999999999
s((I2
I3
I4
I1
I3
I6
tI2
tp40
F-2.0999999999999996
s((I3
I3
I1
I3
I1
I6
tI2
tp41
F5.8108278262939903
s((I3
I2
I4
I2
I0
I6
tI1
tp42
F-0.69107475952396347
s((I3
I1
I5
I1
I3
I6
tI1
tp43
F-0.95682094498509929
s((I3
I4
I5
I0
I0
I4
tI1
tp44
F0.026738705522286653
s((I4
I4
I5
I1
I3
I6
tI3
tp45
F-2.1256921059553591
s((I2
I3
I5
I0
I0
I2
tI3
tp46
F-0.94545258757362383
s((I4
I2
I5
I3
I0
I4
tI2
tp47
F4.5065943012715906
s((I4
I3
I5
I2
I5
I6
tI3
tp48
F-0.28268967999999983
s((I2
I4
I5
I2
I3
I6
tI3
tp49
F1.7280883189792473
s((I2
I0
I4
I1
I0
I6
tI1
tp50
F-0.42461704422921848
s((I5
I3
I4
I3
I1
I6
tI1
tp51
F2.0999999999999996
s((I5
I4
I3
I2
I0
I6
tI3
tp52
F2.2200099167433667
s((I4
I3
I5
I2
I0
I4
tI3
tp53
F-0.86305697755396693
s((I3
I3
I4
I2
I9
I6
tI1
tp54
F0.69999999999999996
s((I3
I4
I4
I2
I0
I4
tI2
tp55
F2.761076934844509
s((I0
I3
I3
I1
I0
I6
tI3
tp56
F0
s((I4
I4
I5
I2
I7
I6
tI3
tp57
F2.4879770026230257
s((I2
I2
I3
I3
I3
I6
tI3
tp58
F1.1545239999999999
s((I4
I3
I3
I1
I3
I6
tI3
tp59
F-0.98930213765029196
s((I1
I4
I5
I1
I0
I6
tI2
tp60
F-2.1416831851007281
s((I1
I2
I5
I1
I0
I6
tI1
tp61
F0
s((I5
I3
I3
I2
I5
I6
tI2
tp62
F1.7113460761600001
s((I2
I2
I2
I0
I0
I6
tI2
tp63
F-2.8938000000000001
s((I4
I3
I1
I3
I2
I6
tI3
tp64
F2.0999999999999996
s((I3
I2
I4
I1
I1
I6
tI2
tp65
F-2.3992709999999997
s((F3
F2
F4
I1
I0
I6
tI1
tp66
F-2.172578669304134
s((F3
F3
F3
I1
I0
I6
tI2
tp67
F-1.1564785112703937
s((I2
I2
I2
I1
I0
I6
tI2
tp68
F1.2711616990928436
s((I3
I4
I3
I3
I0
I6
tI1
tp69
F6.0615065079609662
s((I3
I2
I5
I0
I6
I6
tI3
tp70
F-2.73
s((I1
I3
I5
I2
I0
I6
tI3
tp71
F2.9955505333510297
s((I1
I3
I5
I1
I0
I4
tI3
tp72
F-0.92489198156938235
s((I4
I3
I4
I2
I5
I6
tI1
tp73
F1.3280785884221449
s((I2
I2
I4
I2
I12
I6
tI3
tp74
F2.0999999999999996
s((I2
I3
I4
I3
I0
I6
tI3
tp75
F5.3253730538722568
s((I5
I4
I2
I1
I3
I6
tI3
tp76
F1.2056799999999999
s((I3
I3
I2
I1
I0
I6
tI1
tp77
F-1.0946530440853843
s((I5
I2
I5
I3
I3
I6
tI1
tp78
F1.4714327115665924
s((I2
I1
I4
I1
I0
I6
tI1
tp79
F-0.84619731477820781
s((I3
I2
I2
I1
I0
I6
tI2
tp80
F-1.1200000000000001
s((I3
I1
I2
I3
I0
I6
tI3
tp81
F2.0999999999999996
s((I2
I3
I4
I2
I3
I6
tI2
tp82
F1.52441099776
s((I4
I3
I3
I0
I0
I6
tI3
tp83
F-2.7899999318761726
s((I1
I2
I4
I3
I5
I6
tI1
tp84
F2.919
s((I3
I4
I5
I2
I3
I6
tI2
tp85
F3.5455557861112168
s((F4
F5
F5
I0
I0
I2
tI1
tp86
F0
s((I2
I2
I5
I2
I0
I6
tI2
tp87
F1.4205548854674308
s((I5
I4
I5
I3
I0
I6
tI2
tp88
F6.696659002541641
s((I3
I4
I5
I1
I3
I6
tI2
tp89
F1.1571444426158524
s((I3
I2
I5
I1
I3
I6
tI3
tp90
F-1.3960930784612273
s((I3
I3
I4
I1
I3
I6
tI2
tp91
F-1.0606651808104406
s((I3
I4
I3
I2
I3
I6
tI1
tp92
F0.48999999999999999
s((I3
I3
I5
I1
I2
I6
tI2
tp93
F-1.01647
s((I5
I4
I5
I3
I1
I6
tI1
tp94
F3.4768877573375985
s((I4
I4
I5
I0
I0
I2
tI3
tp95
F0.012077331213550939
s((I4
I2
I2
I3
I1
I6
tI2
tp96
F4.0742687999999987
s((I4
I1
I5
I2
I3
I6
tI2
tp97
F0.55299999999999994
s((F3
F3
F5
I0
I3
I4
tI2
tp98
F-2.9190179115300001
s((I5
I4
I5
I3
I4
I6
tI1
tp99
F3.33711
s((I5
I3
I1
I2
I2
I6
tI2
tp100
F1.7087822019056893
s((I3
I4
I5
I0
I2
I6
tI2
tp101
F-2.9756999999999998
s((I4
I3
I2
I1
I0
I6
tI1
tp102
F-2.3810999999196771
s((I3
I3
I4
I1
I6
I6
tI1
tp103
F-0.86760099999999996
s((I5
I5
I5
I3
I0
I6
tI1
tp104
F4.5296419324099437
s((I3
I2
I2
I0
I2
I6
tI3
tp105
F-1.8199999999999998
s((I1
I2
I5
I2
I0
I4
tI3
tp106
F1.8199999999999998
s((I4
I3
I5
I1
I3
I4
tI3
tp107
F-0.029879205384000018
s((I3
I4
I5
I0
I0
I6
tI2
tp108
F-0.19437047516109063
s((I0
I2
I4
I3
I1
I6
tI2
tp109
F3.2130000000000001
s((I4
I4
I3
I1
I1
I6
tI2
tp110
F-0.97866999999999993
s((F3
F2
F5
I1
I0
I6
tI3
tp111
F-1.5448408306308004
s((I1
I3
I4
I3
I2
I6
tI3
tp112
F2.2024467401750032
s((I4
I4
I3
I1
I0
I6
tI1
tp113
F-0.99756999999999996
s((I4
I3
I4
I0
I0
I6
tI3
tp114
F-2.9993439
s((I3
I4
I5
I1
I0
I6
tI2
tp115
F1.5925506050937861
s((I4
I4
I5
I2
I1
I6
tI2
tp116
F1.515056700542788
s((I5
I3
I4
I3
I0
I6
tI2
tp117
F6.8106699247117124
s((I1
I2
I5
I0
I0
I6
tI3
tp118
F-2.7656999999999998
s((I1
I3
I2
I0
I0
I6
tI3
tp119
F-1.946
s((I3
I3
I5
I0
I5
I6
tI2
tp120
F-2.3627099999999999
s((I4
I4
I2
I1
I0
I6
tI2
tp121
F-0.99927100000000002
s((I3
I3
I4
I0
I0
I6
tI2
tp122
F-2.1799334528924921
s((I3
I3
I4
I1
I2
I6
tI2
tp123
F-2.3992709999999997
s((I3
I5
I3
I0
I0
I6
tI2
tp124
F-2.3099999999999996
s((I4
I3
I2
I1
I3
I6
tI3
tp125
F-2.3999742656584799
s((I1
I4
I5
I1
I0
I6
tI1
tp126
F-0.75577120497103467
s((I2
I1
I5
I3
I2
I6
tI1
tp127
F2.0999999999999996
s((I2
I4
I2
I3
I0
I6
tI1
tp128
F3.6246897119999999
s((F3
F3
F4
I1
I0
I6
tI2
tp129
F-0.28910192157104175
s((F4
F2
F5
I0
I0
I4
tI3
tp130
F1.1817526004123147
s((I2
I3
I3
I1
I0
I6
tI3
tp131
F-0.82053999999999994
s((I2
I2
I4
I1
I0
I6
tI2
tp132
F-0.75227806187314683
s((I2
I1
I5
I0
I0
I6
tI3
tp133
F-2.7929999999999997
s((I3
I4
I5
I0
I3
I6
tI2
tp134
F-1.1782399510000001
s((I5
F3
F1
I2
I0
I6
tI3
tp135
F2.1516295067406728
s((I5
I3
I4
I2
I0
I6
tI3
tp136
F3.715556527921847
s((F5
F1
I5
I1
I0
I4
tI1
tp137
F0
s((I4
I3
I5
I1
I0
I4
tI1
tp138
F1.1741747413141852
s((I3
I3
I5
I1
I3
I6
tI1
tp139
F-2.0865339279351329
s((I5
I2
I5
I3
I6
I6
tI1
tp140
F2.8491119999999994
s((I3
I3
I3
I2
I0
I6
tI2
tp141
F1.9599267130748665
s((I4
I2
I2
I3
I0
I6
tI1
tp142
F3.2465999999999999
s((I4
I2
I5
I2
I0
I6
tI3
tp143
F1.1851649768120969
s((I3
I3
I5
I0
I3
I6
tI3
tp144
F-2.9851658835600001
s((I4
I4
I3
I1
I3
I6
tI3
tp145
F-1.3300000000000001
s((I2
I3
I5
I3
I6
I6
tI3
tp146
F3.6119999999999997
s((I3
I2
I5
I1
I5
I6
tI3
tp147
F-0.025891174926578886
s((I3
I2
I4
I3
I0
I6
tI2
tp148
F2.0999999999999996
s((I2
I3
I3
I0
I0
I6
tI2
tp149
F-0.69999999999999996
s((I2
I2
I1
I0
I0
I6
tI3
tp150
F-2.6951399999999999
s((F3
F4
F5
I1
I2
I6
tI3
tp151
F-0.99728850150270221
s((I2
I4
I1
I3
I1
I6
tI2
tp152
F0.69999999999999996
s((I2
I4
I3
I3
I3
I6
tI2
tp153
F2.4354487931698889
s((I5
I3
I4
I2
I4
I6
tI1
tp154
F0.69999999999999996
s((I3
I4
I3
I0
I0
I6
tI1
tp155
F-2.8323119999999999
s((I2
I2
I4
I0
I2
I6
tI1
tp156
F-2.919
s((F5
F3
I5
I1
I0
I6
tI3
tp157
F-0.1343631932340793
s((I5
I3
I4
I2
I2
I6
tI1
tp158
F1.7854608896220905
s((I0
I3
I2
I3
I0
I6
tI1
tp159
F2.0999999999999996
s((F4
F3
F5
I1
I6
I6
tI2
tp160
F-0.9943314939397
s((F4
F4
F4
I2
I0
I6
tI1
tp161
F0.42920498594677592
s((I3
I3
I2
I2
I0
I6
tI1
tp162
F1.1350234000000001
s((I4
I2
I3
I2
I0
I6
tI3
tp163
F0.13705468241288354
s((I2
I3
I4
I3
I7
I6
tI2
tp164
F2.0999999999999996
s((I4
I3
I4
I2
I4
I6
tI3
tp165
F-0.31924480000000011
s((I2
I3
I4
I3
I1
I6
tI1
tp166
F1.9114342777600002
s((I3
I3
I5
I3
I0
I6
tI3
tp167
F5.714361616772468
s((I3
I3
I4
I0
I2
I6
tI1
tp168
F-2.4467099999999999
s((F4
F3
F5
I0
I0
I2
tI1
tp169
F0.0013496504428393836
s((I2
I3
I2
I3
I0
I6
tI2
tp170
F3.1097691512854242
s((I4
I3
I2
I2
I0
I6
tI3
tp171
F-0.22902827196801975
s((I5
I3
I2
I2
I0
I6
tI2
tp172
F2.68066208730635
s((F3
F3
F1
I1
I3
I6
tI3
tp173
F0
s((I1
I3
I5
I3
I9
I6
tI2
tp174
F2.0999999999999996
s((I3
I4
I5
I0
I0
I2
tI2
tp175
F0.028399463809920006
s((I5
I1
I5
I3
I3
I6
tI3
tp176
F2.150505060507975
s((I3
I2
I5
I2
I3
I6
tI1
tp177
F0.20699361300800012
s((I5
I2
I5
I3
I1
I6
tI2
tp178
F0.69999999999999996
s((F3
F1
F5
I2
I2
I6
tI3
tp179
F1.5866001530050364
s((I0
I2
I4
I3
I2
I6
tI3
tp180
F5.0683221119999997
s((I3
I3
I4
I3
I4
I6
tI3
tp181
F2.73
s((I3
I2
I5
I2
I2
I6
tI2
tp182
F1.952119145292688
s((I3
I3
I5
I1
I0
I4
tI2
tp183
F-0.91595296210499777
s((I5
I2
I1
I2
I2
I6
tI2
tp184
F1.3848310080640003
s((I1
I3
I3
I3
I5
I6
tI2
tp185
F4.0655999999999999
s((I5
I1
I5
I2
I6
I6
tI1
tp186
F0.48999999999999999
s((I1
I3
I5
I1
I0
I6
tI1
tp187
F0.63783560330903799
s((I4
I3
I3
I3
I3
I6
tI2
tp188
F0.87570000000000014
s((I4
I0
I4
I2
I3
I6
tI2
tp189
F1.185021454929351
s((I3
I3
I4
I1
I0
I4
tI1
tp190
F-0.93201198918688
s((I3
I3
I3
I2
I4
I6
tI2
tp191
F0.69999999999999996
s((I4
I2
I4
I2
I5
I6
tI3
tp192
F1.4874484105600001
s((I5
I3
I4
I1
I0
I6
tI1
tp193
F-0.76468247636022124
s((I4
I4
I3
I2
I0
I6
tI2
tp194
F-2.8513500146527693
s((I5
I1
I5
I3
I1
I6
tI2
tp195
F4.7506376775385046
s((F5
F2
I5
I2
I0
I6
tI2
tp196
F0.047841814851639519
s((I4
I4
I3
I2
I2
I6
tI2
tp197
F0.21000000000000002
s((I4
I3
I3
I2
I0
I6
tI2
tp198
F1.2837304300592489
s((I3
I1
I4
I2
I2
I6
tI2
tp199
F0.69999999999999996
s((I3
I3
I4
I3
I5
I6
tI1
tp200
F1.8954055439872
s((I3
I2
I5
I2
I5
I6
tI2
tp201
F1.6259997166766078
s((I3
I3
I4
I3
I0
I6
tI1
tp202
F3.5063486330323133
s((I4
I3
I5
I2
I2
I6
tI1
tp203
F-0.24796371530178729
s((I4
I3
I5
I3
I3
I6
tI3
tp204
F3.4882014720000001
s((I4
I3
I1
I2
I0
I6
tI2
tp205
F0.67478024765055444
s((I4
I1
I4
I2
I3
I6
tI3
tp206
F-0.69999999999999996
s((F4
F3
F5
I0
I0
I4
tI3
tp207
F-2.9993332807461566
s((I4
I3
I4
I1
I9
I6
tI2
tp208
F-2.0999999999999996
s((I2
I3
I5
I2
I1
I4
tI2
tp209
F1.3635999999999999
s((I0
I2
I5
I3
I2
I6
tI2
tp210
F2.73
s((I5
I0
I5
I2
I6
I6
tI1
tp211
F-0.48999999999999999
s((I2
I3
I5
I0
I0
I6
tI2
tp212
F-2.9904025050886252
s((I5
I4
I1
I1
I0
I6
tI3
tp213
F-0.97299999999999998
s((I5
I4
I2
I2
I0
I6
tI1
tp214
F0.69999999999999996
s((I5
I2
I4
I3
I3
I6
tI1
tp215
F0.90999999999999992
s((I4
I4
I4
I0
I0
I6
tI1
tp216
F-2.9756999999999998
s((F5
F2
I5
I1
I0
I4
tI2
tp217
F-0.42000000000000004
s((I5
I3
I2
I2
I1
I6
tI1
tp218
F-0.48999999999999999
s((I5
I3
I5
I1
I0
I2
tI3
tp219
F0
s((I2
I4
I5
I1
I4
I6
tI3
tp220
F-0.69999999999999996
s((I3
I3
I4
I2
I5
I6
tI2
tp221
F1.0490959360000001
s((I3
I4
I5
I3
I3
I4
tI1
tp222
F0.69999999999999996
s((I3
I3
I4
I2
I3
I6
tI1
tp223
F3.862501939398391
s((I5
I2
I5
I3
I0
I6
tI1
tp224
F7.2309193342962317
s((I2
I3
I5
I0
I2
I6
tI3
tp225
F-2.8938000000000001
s((I2
I3
I4
I0
I0
I4
tI1
tp226
F-2.7677999999999998
s((F4
F4
F5
I1
I0
I4
tI2
tp227
F-1.8200000000005474
s((I4
I3
I5
I2
I0
I6
tI3
tp228
F0.6530025251799777
s((I2
I3
I5
I1
I3
I6
tI1
tp229
F-0.5294774582973234
s((I1
I2
I3
I3
I12
I6
tI1
tp230
F2.0999999999999996
s((I4
I4
I4
I0
I2
I6
tI2
tp231
F-2.0999999999999996
s((I4
I4
I5
I0
I0
I4
tI2
tp232
F-2.5799639190917354
s((I2
I4
I4
I1
I2
I6
tI2
tp233
F-0.3797253241600001
s((I4
I1
I4
I1
I0
I6
tI3
tp234
F-0.29983713337983231
s((I4
I1
I5
I2
I2
I6
tI1
tp235
F1.6436950768
s((I2
I3
I5
I2
I0
I4
tI1
tp236
F2.0999999999999996
s((F4
F3
F3
I2
I1
I6
tI2
tp237
F1.0047520000000001
s((I5
I2
I2
I2
I0
I6
tI1
tp238
F1.8572733630626643
s((I3
I4
I2
I1
I0
I6
tI1
tp239
F-1.20757
s((I4
I4
I3
I3
I4
I6
tI1
tp240
F2.0999999999999996
s((I4
I4
I4
I1
I0
I6
tI2
tp241
F-2.2285458880511584
s((I3
I4
I4
I3
I0
I6
tI1
tp242
F6.1625165151272299
s((I3
I3
I5
I2
I2
I6
tI1
tp243
F1.2796250807365901
s((I5
I3
I5
I2
I5
I6
tI2
tp244
F2.5557031248639546
s((I3
I3
I3
I3
I0
I6
tI1
tp245
F6.0945410774880235
s((I5
I4
I5
I3
I3
I6
tI2
tp246
F0.69999999999999996
s((I3
I2
I5
I0
I0
I6
tI3
tp247
F-2.9185638155331599
s((F2
F3
F5
I1
I0
I6
tI3
tp248
F-0.23426779047426105
s((I2
I3
I5
I2
I3
I4
tI1
tp249
F0.69999999999999996
s((I5
I4
I5
I0
I0
I4
tI2
tp250
F0.02836692289665033
s((I3
I2
I3
I0
I1
I6
tI3
tp251
F-0.69999999999999996
s((I4
I3
I5
I2
I10
I6
tI1
tp252
F0.90999999999999992
s((I1
I3
I4
I3
I1
I4
tI3
tp253
F0.69999999999999996
s((I2
I1
I5
I1
I2
I6
tI1
tp254
F-1.8899999999999999
s((I3
I2
I5
I0
I2
I6
tI3
tp255
F-2.73
s((I4
I3
I3
I2
I3
I6
tI1
tp256
F1.0686843945935545
s((I4
I3
I5
I2
I7
I6
tI1
tp257
F0.90999999999999992
s((I5
F3
F1
I3
I0
I6
tI1
tp258
F1.6099999999999999
s((I4
I4
I5
I0
I0
I0
tI1
tp259
F0.030307404077808582
s((F4
F2
F5
I0
I0
I2
tI2
tp260
F0.00015010501443840006
s((F2
F4
F4
I1
I0
I6
tI3
tp261
F-0.49732856155783034
s((I2
I4
I2
I2
I0
I6
tI1
tp262
F-0.69999999999999996
s((I3
I3
I2
I0
I0
I4
tI2
tp263
F-2.0999999999999996
s((I5
I4
I5
I2
I0
I6
tI2
tp264
F0.0099254591863373598
s((I4
I4
I5
I1
I6
I6
tI3
tp265
F-0.90999999999999992
s((I4
I1
I5
I1
I0
I6
tI1
tp266
F-0.99418068206083787
s((I4
I3
I4
I1
I6
I6
tI2
tp267
F-1.457071
s((I4
I0
I4
I1
I0
I6
tI3
tp268
F-0.97299999999999998
s((I2
I3
I5
I1
I2
I6
tI2
tp269
F1.4925525072336909
s((I3
I1
I5
I0
I6
I6
tI1
tp270
F-2.0299999999999998
s((I5
I4
I5
I2
I0
I4
tI1
tp271
F-0.64557245427359877
s((I2
I3
I4
I1
I3
I6
tI3
tp272
F-0.50329788873515602
s((I3
I3
I1
I3
I1
I6
tI3
tp273
F2.0999999999999996
s((I2
I2
I5
I3
I6
I6
tI2
tp274
F2.919
s((I4
I2
I2
I1
I0
I6
tI2
tp275
F-0.99927100000000002
s((I2
I3
I4
I2
I5
I6
tI2
tp276
F1.6224024580556797
s((I4
I4
I5
I1
I2
I6
tI3
tp277
F-0.9998834116573635
s((I5
I2
I5
I1
I0
I6
tI1
tp278
F-0.5739943292202484
s((I2
I0
I4
I1
I0
I6
tI2
tp279
F-0.90999999999999992
s((I5
I4
I3
I2
I0
I6
tI2
tp280
F0.20911690284747531
s((I4
I3
I5
I2
I0
I4
tI2
tp281
F-0.061905328679669712
s((I1
I2
I4
I3
I6
I6
tI3
tp282
F2.0999999999999996
s((I3
I3
I4
I2
I9
I6
tI2
tp283
F1.10656
s((I3
I3
I5
I0
I6
I6
tI1
tp284
F-2.8308
s((I3
I4
I4
I2
I0
I4
tI3
tp285
F0.7913547477685916
s((I2
I2
I4
I3
I6
I6
tI3
tp286
F3.6808525599999999
s((I3
I3
I2
I0
I6
I6
tI2
tp287
F-2.0999999999999996
s((I4
I2
I3
I1
I2
I6
tI2
tp288
F-0.96536062
s((F4
F2
F5
I1
I0
I6
tI3
tp289
F-1.3615322488530892
s((I4
I2
I3
I0
I3
I4
tI3
tp290
F-2.0999999999999996
s((I3
I2
I5
I1
I0
I4
tI1
tp291
F-1.158461005381876
s((I3
I4
I4
I1
I2
I6
tI1
tp292
F-0.97281099999999998
s((I3
I4
I5
I2
I0
I6
tI3
tp293
F-0.70384468414754442
s((I3
I2
I3
I1
I3
I6
tI3
tp294
F0
s((I4
I3
I3
I1
I3
I6
tI2
tp295
F-2.3940278497940541
s((I1
I4
I4
I3
I0
I4
tI3
tp296
F0.69999999999999996
s((I4
I1
I5
I2
I0
I6
tI1
tp297
F0.098808869777447406
s((F4
F2
F5
I0
I0
I6
tI1
tp298
F-2.7284577057136792
s((I4
I2
I3
I3
I0
I6
tI3
tp299
F5.867350398824386
s((I3
I2
I4
I1
I1
I6
tI3
tp300
F-0.99756999999999996
s((I5
I2
I5
I0
I3
I6
tI1
tp301
F-1.5190000000000001
s((I2
I4
I5
I3
I0
I6
tI2
tp302
F3.0327399999108549
s((I3
I1
I3
I3
I6
I6
tI3
tp303
F2.0999999999999996
s((F3
F3
F5
I1
I0
I6
tI3
tp304
F-1.0391415360229823
s((I2
I1
I4
I1
I0
I4
tI1
tp305
F-0.69999999999999996
s((I3
I2
I5
I0
I6
I6
tI2
tp306
F-0.7331242591789332
s((I2
I1
I4
I2
I8
I6
tI1
tp307
F0.69999999999999996
s((I0
I2
I4
I3
I7
I6
tI3
tp308
F4.0292095316037297
s((I5
I1
I5
I1
I0
I6
tI3
tp309
F-0.0090092520000000058
s((I0
I1
I5
I0
I0
I6
tI3
tp310
F-1.3999999999999999
s((I5
I4
I5
I1
I0
I4
tI3
tp311
F0
s((I2
I4
I4
I3
I0
I6
tI1
tp312
F3.6823302137292662
s((I4
I2
I5
I2
I0
I4
tI1
tp313
F-0.21752193307130563
s((I4
I2
I3
I1
I0
I4
tI3
tp314
F-0.90999999999999992
s((I5
I1
I3
I2
I0
I6
tI1
tp315
F3.7407025723697194
s((I5
I1
I4
I1
I3
I6
tI3
tp316
F-2.3729999999999998
s((I5
I1
I4
I3
I3
I6
tI3
tp317
F3.4775999999999998
s((I3
I4
I4
I1
I1
I6
tI1
tp318
F-0.98830899999999999
s((I1
I3
I5
I2
I1
I6
tI3
tp319
F2.0020416225103896
s((I2
I2
I5
I2
I0
I6
tI3
tp320
F0.047378390843632268
s((I4
I4
I5
I3
I6
I6
tI1
tp321
F2.0999999999999996
s((F2
F2
F4
I0
I0
I4
tI1
tp322
F-0.93366070000000001
s((I3
I2
I5
I1
I2
I6
tI1
tp323
F-0.9345699999999999
s((I5
I4
I4
I2
I0
I6
tI1
tp324
F-0.16212202407597354
s((I5
I4
I5
I3
I0
I6
tI3
tp325
F2.1188655375608216
s((I3
I4
I5
I1
I3
I6
tI1
tp326
F-0.77690807656203054
s((I3
I2
I5
I1
I3
I6
tI2
tp327
F-0.99169331268521366
s((I3
I2
I4
I1
I3
I6
tI2
tp328
F-0.34553671200571023
s((I2
I4
I3
I0
I0
I6
tI1
tp329
F-2.0999999999999996
s((I4
I4
I5
I2
I6
I6
tI2
tp330
F1.4833115730564468
s((I4
I3
I4
I0
I3
I6
tI2
tp331
F-1.3682738931400003
s((I2
I2
I4
I2
I0
I4
tI1
tp332
F0.69999999999999996
s((I3
I1
I4
I3
I3
I6
tI3
tp333
F2.0999999999999996
s((I4
I1
I5
I2
I3
I6
tI3
tp334
F2.4138658215103583
s((F2
F3
F3
I1
I2
I6
tI3
tp335
F0
s((I1
I2
I5
I2
I0
I4
tI2
tp336
F1.3999999999999999
s((I0
I4
I4
I3
I0
I4
tI1
tp337
F1.891228770924414
s((I1
I1
I3
I3
I0
I6
tI1
tp338
F2.919
s((I4
I2
I2
I2
I0
I6
tI3
tp339
F2.3525087957986601
s((I2
I3
I4
I3
I0
I4
tI2
tp340
F2.9652314033010709
s((I3
I4
I5
I0
I0
I6
tI1
tp341
F-2.9999999611101131
s((I3
I3
I5
I2
I7
I6
tI1
tp342
F0.69999999999999996
s((I2
I3
I2
I1
I0
I6
tI1
tp343
F-0.90999999999999992
s((I3
I3
I4
I0
I5
I6
tI2
tp344
F-2.0999999999999996
s((I5
I3
I5
I2
I2
I6
tI1
tp345
F-0.69999999999999996
s((F3
F4
F5
I1
I0
I6
tI3
tp346
F-2.3850315374833886
s((I2
I3
I2
I1
I5
I6
tI1
tp347
F-0.69999999999999996
s((I3
I2
I5
I0
I0
I4
tI3
tp348
F2.4901071993351836e-05
s((I4
I4
I5
I2
I1
I6
tI1
tp349
F0.99277783982195622
s((I4
I3
I5
I1
I3
I6
tI1
tp350
F-1.0519608216325802
s((I3
I3
I5
I3
I8
I6
tI2
tp351
F1.1266528
s((F3
F3
F5
I0
I0
I4
tI1
tp352
F0.72283944657249044
s((I5
I3
I4
I3
I0
I6
tI3
tp353
F7.4737544408639422
s((I2
I1
I4
I1
I4
I6
tI2
tp354
F-0.69999999999999996
s((I1
I3
I2
I0
I0
I6
tI2
tp355
F-1.946
s((F2
F2
F2
I2
I2
I6
tI1
tp356
F0.99399999999999988
s((I1
I4
I5
I0
I0
I6
tI2
tp357
F-2.7784311384892373
s((I4
I4
I2
I1
I0
I6
tI3
tp358
F-0.99937043568981465
s((I3
I3
I4
I1
I2
I6
tI3
tp359
F-2.177399050291255
s((I3
I5
I3
I0
I0
I6
tI3
tp360
F-2.0999999999999996
s((I2
I3
I5
I3
I3
I6
tI1
tp361
F3.4376977539819906
s((I3
I2
I2
I0
I0
I6
tI2
tp362
F-1.2648999999999999
s((I1
I3
I3
I0
I0
I6
tI3
tp363
F-1.3825997390461751
s((I0
I2
I5
I3
I2
I6
tI1
tp364
F2.0999999999999996
s((I2
I1
I5
I3
I2
I6
tI2
tp365
F2.0999999999999996
s((F3
F3
F4
I1
I0
I6
tI3
tp366
F-1.0120869009927156
s((I5
I2
I4
I2
I3
I6
tI1
tp367
F0.69999999999999996
s((I3
I3
I5
I2
I0
I6
tI1
tp368
F0.036781832049203267
s((I4
I3
I0
I1
I2
I6
tI3
tp369
F-0.69999999999999996
s((I2
I2
I5
I0
I0
I6
tI1
tp370
F-2.0999999999999996
s((I2
I2
I4
I1
I0
I6
tI3
tp371
F-1.1126329549059393
s((I2
I1
I5
I0
I0
I6
tI2
tp372
F-2.2827000000000002
s((I3
I4
I5
I0
I3
I6
tI3
tp373
F-2.9903285999999998
s((I3
I3
I5
I1
I2
I6
tI1
tp374
F-2.3928047099108096
s((I1
I4
I2
I3
I0
I6
tI2
tp375
F3.8270399999999993
s((I5
I3
I4
I2
I0
I6
tI2
tp376
F2.7059419370324935
s((I4
I4
I4
I2
I6
I6
tI3
tp377
F2.3067287223346269
s((I5
I5
I3
I2
I1
I6
tI1
tp378
F-0.69999999999999996
s((I3
I3
I5
I1
I3
I6
tI2
tp379
F-0.99927100000000002
s((I4
I2
I3
I2
I3
I6
tI2
tp380
F1.8844429665055469
s((I3
I3
I5
I0
I2
I6
tI1
tp381
F-2.9885628315899999
s((I4
I2
I5
I0
I0
I4
tI1
tp382
F-2.9996018225109298
s((F2
F3
F2
I1
I3
I6
tI3
tp383
F-1.3929999999999998
s((I3
I3
I4
I2
I0
I6
tI2
tp384
F0.12005792830112005
s((I3
I3
I5
I0
I3
I6
tI2
tp385
F-2.9870399999999999
s((I3
I2
I3
I2
I0
I6
tI3
tp386
F1.62917829767251
s((I4
I3
I2
I2
I2
I6
tI1
tp387
F1.12759316217856
s((I5
I2
I4
I3
I0
I6
tI3
tp388
F4.033048935292193
s((I4
I3
I2
I1
I1
I6
tI3
tp389
F-1.3300000000000001
s((F4
F3
F5
I0
I0
I6
tI1
tp390
F-2.9448662041454643
s((I4
I2
I2
I2
I2
I6
tI2
tp391
F1.7558647817300801
s((I2
I2
I5
I1
I3
I6
tI1
tp392
F-1.00938628
s((I0
I4
I4
I3
I6
I6
tI2
tp393
F2.0999999999999996
s((I4
I4
I5
I2
I0
I4
tI2
tp394
F2.7618836611379862
s((F5
F3
I5
I1
I0
I6
tI2
tp395
F1.4178201289536698
s((I4
I4
I3
I1
I2
I6
tI3
tp396
F-1.8915812999999999
s((I2
I3
I4
I3
I5
I6
tI3
tp397
F1.3999999999999999
s((I2
I2
I3
I3
I9
I6
tI2
tp398
F3.1835999999999998
s((I4
I4
I3
I3
I0
I6
tI2
tp399
F5.6878441503727162
s((I2
I2
I5
I0
I6
I6
tI3
tp400
F-2.919
s((I2
I3
I4
I2
I0
I4
tI3
tp401
F1.54402765311464
s((I1
I3
I5
I3
I0
I6
tI2
tp402
F5.2096077867570125
s((I4
I2
I4
I2
I3
I6
tI2
tp403
F2.0599814461667947
s((I5
I5
I5
I0
I0
I2
tI1
tp404
F0.054720144476563128
s((I1
I1
I3
I1
I0
I6
tI1
tp405
F0.69999999999999996
s((I3
I3
I5
I3
I0
I6
tI2
tp406
F3.386557059035713
s((I1
I3
I4
I1
I3
I6
tI2
tp407
F1.6617048833313957
s((I4
I3
I1
I1
I0
I6
tI3
tp408
F-0.99978129999999998
s((I2
I3
I2
I3
I0
I6
tI1
tp409
F5.7076537311830116
s((I4
I3
I5
I0
I3
I6
tI1
tp410
F-2.9927099999999998
s((I3
I0
I5
I0
I6
I6
tI3
tp411
F-0.69999999999999996
s((F2
F3
I5
I0
I0
I4
tI1
tp412
F-2.936472734010144
s((I5
I3
I2
I2
I0
I6
tI1
tp413
F1.59244386299718
s((F2
F3
F5
I0
I0
I4
tI3
tp414
F-2.9755109995313762
s((F3
F4
F5
I0
I0
I2
tI1
tp415
F-0.69983568881652825
s((F5
F2
I5
I1
I3
I6
tI1
tp416
F-0.92149952738145458
s((I3
I3
I4
I2
I2
I6
tI1
tp417
F0.21559056798667164
s((I2
I4
I5
I1
I0
I6
tI3
tp418
F-0.67695302726811024
s((I3
I3
I5
I2
I3
I6
tI1
tp419
F1.9067612020947564
s((I3
I3
I4
I3
I3
I6
tI3
tp420
F5.1831958499327992
s((I4
I4
I5
I2
I2
I6
tI2
tp421
F1.786448264826614
s((I4
I2
I3
I1
I0
I6
tI3
tp422
F-0.6225211423028717
s((I3
I1
I5
I0
I3
I6
tI3
tp423
F0
s((I3
I3
I5
I1
I0
I4
tI1
tp424
F-0.97365458037568642
s((I3
I3
I4
I0
I0
I4
tI3
tp425
F-2.4202500000000002
s((I1
I2
I4
I2
I2
I6
tI1
tp426
F2.0999999999999996
s((I3
I2
I5
I3
I6
I6
tI3
tp427
F2.73
s((I3
I3
I4
I2
I7
I6
tI2
tp428
F0.69999999999999996
s((I4
I3
I4
I2
I6
I6
tI3
tp429
F0.026313050461262311
s((I3
I3
I4
I2
I3
I6
tI2
tp430
F-0.81717526649794114
s((I3
I3
I3
I0
I0
I6
tI1
tp431
F-2.9999042447605748
s((I5
F2
F2
I2
I2
I6
tI2
tp432
F1.2219710481999999
s((I3
I3
I4
I2
I6
I6
tI1
tp433
F2.9819999999999998
s((I0
I2
I4
I2
I5
I6
tI1
tp434
F3.5254714656000004
s((I1
I3
I4
I2
I0
I4
tI3
tp435
F1.19551382655732
s((I5
I2
I5
I2
I6
I6
tI1
tp436
F0
s((I3
I3
I3
I0
I5
I6
tI3
tp437
F-2.4989999999999997
s((I4
I1
I4
I2
I7
I6
tI2
tp438
F1.7568336486399996
s((I2
I4
I5
I1
I2
I6
tI1
tp439
F0.69999999999999996
s((I3
I4
I4
I2
I6
I6
tI3
tp440
F1.5116586186131635
s((I5
I1
I4
I2
I1
I6
tI1
tp441
F1.3149068799999999
s((I4
I4
I4
I2
I2
I6
tI3
tp442
F0.20193717590037219
s((I3
I3
I4
I3
I6
I6
tI3
tp443
F3.8765999999999998
s((I5
I3
I4
I2
I3
I6
tI3
tp444
F3.6658328910655751
s((I5
I4
I5
I2
I3
I6
tI1
tp445
F3.1182837685380198
s((I2
I4
I4
I1
I1
I6
tI1
tp446
F-0.90999999999999992
s((I4
I5
I5
I1
I0
I6
tI1
tp447
F0.037278466192418001
s((I4
I1
I4
I2
I2
I6
tI1
tp448
F1.6211587839999999
s((I4
I3
I5
I3
I3
I6
tI2
tp449
F4.0434820607999988
s((I3
I4
I5
I0
I3
I2
tI2
tp450
F0
s((I4
I1
I4
I2
I3
I6
tI2
tp451
F1.0609447450225553
s((I5
I4
I2
I2
I2
I6
tI2
tp452
F-0.69999999999999996
s((I4
I3
I5
I0
I0
I4
tI2
tp453
F-0.076656542181065851
s((I2
I3
I4
I1
I3
I4
tI1
tp454
F-0.69999999999999996
s((I4
I4
I5
I2
I0
I6
tI3
tp455
F2.0394363152667547
s((I4
I4
I5
I0
I3
I6
tI1
tp456
F-1.4092988565109299
s((I2
I3
I5
I0
I0
I6
tI1
tp457
F-2.9997818263264651
s((I3
I3
I4
I3
I3
I6
tI1
tp458
F2.6643691930710118
s((I5
I4
I2
I2
I0
I6
tI2
tp459
F-1.7135653404346194
s((I5
I2
I4
I3
I3
I6
tI2
tp460
F4.4594044421614081
s((I2
I4
I5
I1
I5
I6
tI1
tp461
F-0.90999999999999992
s((I5
I3
I2
I2
I1
I6
tI2
tp462
F1.5617520245181029
s((I5
I3
I5
I1
I0
I2
tI2
tp463
F0
s((I3
I3
I4
I2
I5
I6
tI3
tp464
F2.2631680685139437
s((I5
I2
I5
I3
I0
I6
tI2
tp465
F1.7303672669306451
s((I2
I3
I5
I0
I2
I6
tI2
tp466
F-2.9590884119999998
s((I4
I3
I5
I2
I0
I6
tI2
tp467
F0.42688610473991462
s((I4
I4
I5
I0
I0
I4
tI3
tp468
F-2.9999999999681402
s((I3
I3
I3
I1
I0
I4
tI1
tp469
F-0.69999999999999996
s((I4
I1
I4
I1
I0
I6
tI2
tp470
F-2.3987709532333676
s((I4
I3
I5
I3
I0
I6
tI2
tp471
F4.7587547648676818
s((I3
I4
I5
I3
I3
I6
tI3
tp472
F2.0999999999999996
s((I5
I0
I3
I2
I0
I6
tI2
tp473
F2.206526798867964
s((I1
I3
I4
I0
I0
I4
tI3
tp474
F0
s((I3
I4
I5
I2
I0
I4
tI3
tp475
F0.90999999999999992
s((I2
I3
I5
I0
I6
I6
tI2
tp476
F-1.5190000000000001
s((I3
I1
I5
I0
I3
I6
tI1
tp477
F-2.0299999999999998
s((I4
I4
I4
I1
I0
I6
tI3
tp478
F-2.8198065292319998
s((I5
I4
I4
I0
I0
I6
tI3
tp479
F-2.999999996125795
s((I5
I2
I3
I2
I3
I6
tI2
tp480
F2.0555393756724638
s((I2
I4
I5
I1
I3
I6
tI2
tp481
F-0.97299999999999998
s((I4
I3
I2
I0
I0
I6
tI2
tp482
F-2.9998490969999998
s((I3
I1
I5
I1
I4
I6
tI1
tp483
F-0.99756999999999996
s((I3
I4
I3
I2
I0
I6
tI3
tp484
F1.8506594227502382
s((I2
I3
I5
I0
I5
I6
tI3
tp485
F-2.919
s((I2
I2
I3
I1
I0
I6
tI2
tp486
F-0.97299999999999998
s((I1
I3
I5
I1
I3
I6
tI3
tp487
F-0.69999999999999996
s((I5
I2
I3
I2
I2
I6
tI1
tp488
F0.69999999999999996
s((I5
I4
I5
I3
I3
I6
tI1
tp489
F2.6582406246056802
s((I3
I2
I5
I0
I0
I6
tI2
tp490
F-2.8799196491138748
s((I4
I3
I5
I2
I3
I6
tI2
tp491
F-0.1741905277716862
s((I5
I4
I5
I0
I0
I4
tI1
tp492
F0.00054707637014968528
s((I0
I1
I3
I3
I0
I6
tI2
tp493
F3.3932374605674025
s((I3
I2
I4
I3
I12
I6
tI3
tp494
F2.0999999999999996
s((I3
I3
I5
I0
I9
I6
tI2
tp495
F-0.69999999999999996
s((I2
I2
I2
I3
I0
I6
tI3
tp496
F1.8256099705135982
s((I2
I3
I5
I0
I3
I6
tI2
tp497
F-1.58814648123901
s((I4
I1
I3
I1
I0
I6
tI3
tp498
F-0.99994170846743502
s((I4
I4
I4
I0
I3
I6
tI3
tp499
F-2.9987825699999999
s((I4
I2
I5
I0
I3
I6
tI2
tp500
F-1.5546059288431
s((I5
I3
I3
I2
I3
I6
tI2
tp501
F0.16727769542563195
s((I5
I2
I4
I1
I0
I6
tI3
tp502
F-0.99867673141597768
s((I4
I4
I5
I0
I0
I0
tI2
tp503
F0.047502794571184427
s((I4
I0
I3
I1
I0
I6
tI1
tp504
F1.2906820195198363
s((F4
F2
F5
I0
I0
I2
tI3
tp505
F0.00034311842602490882
s((I5
I4
I5
I2
I0
I6
tI1
tp506
F1.6261051677587202
s((F4
F3
F5
I2
I1
I6
tI1
tp507
F-0.23997430559257515
s((F2
F3
F5
I1
I2
I6
tI3
tp508
F-1.1998297927319916
s((I2
I4
I5
I1
I0
I4
tI3
tp509
F-0.15421894983071538
s((I4
I3
I3
I1
I6
I6
tI2
tp510
F-0.99927100000000002
s((I2
I2
I5
I3
I6
I6
tI1
tp511
F3.0977939999999999
s((F3
F4
F5
I0
I0
I4
tI3
tp512
F-2.6914822839611809
s((I4
I4
I5
I1
I3
I6
tI1
tp513
F-0.99985041870784885
s((I0
I5
I5
I3
I3
I6
tI1
tp514
F3.9026252165314492
s((I2
I3
I4
I1
I2
I6
tI3
tp515
F-0.99719397699783396
s((F0
F3
F5
I1
I0
I6
tI2
tp516
F3.8154795312137026
s((I1
I2
I4
I0
I0
I6
tI2
tp517
F-1.2780231734793155
s((I4
I4
I5
I1
I2
I6
tI2
tp518
F-0.99978129999999998
s((I2
I2
I5
I3
I0
I6
tI2
tp519
F2.1869463840208114
s((I2
I0
I4
I1
I0
I6
tI3
tp520
F-0.94875429342510176
s((I3
I4
I5
I1
I0
I4
tI1
tp521
F-0.91139626835144472
s((I4
I5
I5
I2
I0
I6
tI1
tp522
F2.648771808706849
s((I5
I2
I3
I3
I0
I6
tI1
tp523
F2.7310604550133575
s((I0
I2
I4
I3
I9
I6
tI1
tp524
F2.0999999999999996
s((I4
I4
I5
I2
I0
I4
tI3
tp525
F1.3235041580480025
s((I3
I1
I4
I2
I3
I6
tI1
tp526
F3.8551863945075988
s((I3
I4
I4
I1
I3
I6
tI3
tp527
F0.21302805706948691
s((I3
I4
I5
I2
I1
I6
tI1
tp528
F1.336323814227971
s((F4
F2
F5
I1
I0
I6
tI2
tp529
F-0.96088321298808976
s((I3
I4
I5
I2
I0
I6
tI2
tp530
F1.5267355073282018
s((I4
I3
I3
I1
I3
I6
tI1
tp531
F-2.1013206320819537
s((I3
I4
I1
I3
I2
I6
tI3
tp532
F4.2646495653381606
s((F4
F2
F5
I0
I0
I6
tI2
tp533
F-2.3730051616960419
s((I4
I2
I3
I3
I0
I6
tI2
tp534
F3.6351705558065275
s((I2
I1
I5
I3
I3
I6
tI2
tp535
F4.5116670467707927
s((I4
I2
I4
I1
I6
I6
tI3
tp536
F0.39732699999999999
s((I3
I2
I4
I1
I0
I6
tI3
tp537
F-0.97899026145192058
s((F3
F3
F5
I1
I0
I6
tI2
tp538
F-0.99997289746140816
s((I2
I3
I4
I1
I5
I6
tI1
tp539
F-0.39853526438081333
s((I3
I2
I5
I0
I6
I6
tI1
tp540
F-2.73
s((I3
I2
I5
I0
I3
I6
tI1
tp541
F-2.2978130000000001
s((I5
I1
I5
I1
I0
I6
tI2
tp542
F-0.16014093553653896
s((I4
I2
I5
I2
I7
I6
tI1
tp543
F0.69999999999999996
s((I0
I1
I5
I0
I0
I6
tI2
tp544
F-1.3999999999999999
s((I4
I2
I3
I3
I2
I6
tI2
tp545
F2.0999999999999996
s((I4
I3
I4
I1
I6
I6
tI1
tp546
F-1.1252710000000001
s((I5
I2
I5
I3
I6
I6
tI2
tp547
F5.7055108067327991
s((I4
I2
I5
I2
I0
I4
tI2
tp548
F1.2850661571023769
s((I4
I2
I3
I1
I0
I4
tI2
tp549
F-0.97299999999999998
s((I3
I1
I4
I0
I0
I6
tI3
tp550
F-2.9927099999999998
s((F2
F1
F4
I1
I0
I6
tI3
tp551
F-0.9978567424151652
s((I2
I2
I4
I3
I4
I6
tI3
tp552
F0
s((I4
I3
I3
I0
I0
I6
tI1
tp553
F-2.9999995217031001
s((I4
I3
I4
I0
I6
I6
tI2
tp554
F-2.0999999999999996
s((I3
I4
I4
I1
I1
I6
tI2
tp555
F-0.90999999999999992
s((I4
I2
I4
I0
I0
I6
tI1
tp556
F-2.9869520477239524
s((I5
I2
I4
I2
I7
I6
tI1
tp557
F0.69999999999999996
s((I0
I4
I4
I3
I2
I4
tI2
tp558
F0.69999999999999996
s((I2
I4
I5
I0
I0
I6
tI3
tp559
F-2.9373072149354118
s((I3
I3
I5
I2
I5
I6
tI2
tp560
F1.1123981069823998
s((I3
I2
I4
I2
I0
I4
tI1
tp561
F1.7323689940628082
s((I2
I2
I1
I2
I0
I6
tI1
tp562
F0.69999999999999996
s((I3
I2
I4
I1
I3
I6
tI3
tp563
F-0.99978129999999998
s((I2
I1
I5
I3
I0
I6
tI2
tp564
F4.028583844725282
s((I4
I4
I5
I2
I6
I6
tI3
tp565
F2.8471667672971774
s((I3
I3
I2
I2
I0
I6
tI3
tp566
F0.69999999999999996
s((I5
I3
I5
I3
I1
I6
tI2
tp567
F1.8180365056000001
s((I5
I3
I5
I3
I0
I6
tI1
tp568
F1.4926450623854177
s((I1
I2
I4
I0
I0
I4
tI1
tp569
F-0.42000000000000004
s((I3
I2
I5
I2
I0
I6
tI3
tp570
F-0.42956508970192031
s((I2
I3
I3
I1
I3
I6
tI3
tp571
F-0.27632568233133803
s((I2
I3
I4
I1
I0
I4
tI1
tp572
F-0.95977000000000001
s((F5
F4
F5
I2
I2
I6
tI1
tp573
F1.3460458456200775
s((F2
F2
I5
I1
I2
I6
tI1
tp574
F-0.95409999999999995
s((I2
I2
I4
I2
I0
I6
tI3
tp575
F3.2247163472938367
s((I5
I2
I4
I1
I3
I6
tI2
tp576
F-0.97299999999999998
s((F4
F2
F5
I1
I2
I6
tI1
tp577
F-0.92878665126939997
s((I2
I2
I5
I0
I3
I6
tI3
tp578
F0
s((I1
I3
I4
I3
I6
I6
tI2
tp579
F2.0999999999999996
s((I3
I1
I5
I3
I0
I6
tI3
tp580
F6.3621283598647329
s((I4
I2
I2
I2
I0
I6
tI2
tp581
F1.4814132011886945
s((I1
I1
I3
I3
I3
I6
tI3
tp582
F2.0999999999999996
s((I4
I4
I5
I3
I0
I6
tI1
tp583
F1.9351052741306221
s((I3
I4
I4
I1
I3
I4
tI2
tp584
F-0.69999999999999996
s((I4
I1
I1
I0
I1
I6
tI2
tp585
F-2.0999999999999996
s((F5
F3
F5
I2
I4
I6
tI3
tp586
F-0.48999999999999999
s((I3
I2
I3
I1
I2
I6
tI1
tp587
F-0.396022816
s((I4
I2
I4
I2
I3
I6
tI3
tp588
F-0.5238924936699999
s((I3
I2
I3
I1
I0
I6
tI1
tp589
F-0.99934158978392362
s((I1
I3
I4
I3
I2
I6
tI1
tp590
F5.2453386047999988
s((I2
I3
I5
I2
I4
I6
tI1
tp591
F1.5469999999999999
s((I2
I4
I5
I2
I0
I6
tI2
tp592
F-1.6114967192424827
s((I4
I4
I3
I1
I0
I6
tI3
tp593
F-2.8175699999999999
s((I2
I3
I5
I3
I1
I6
tI3
tp594
F2.0299999999999998
s((F3
F2
F5
I0
I0
I4
tI2
tp595
F-2.8738987022668088
s((I2
I4
I5
I2
I1
I6
tI1
tp596
F1.3802430392934402
s((I5
I3
I4
I3
I3
I6
tI3
tp597
F5.6176296241938299
s((I1
I2
I5
I0
I0
I6
tI1
tp598
F-0.89487757877750052
s((I3
I2
I4
I1
I3
I6
tI1
tp599
F-0.99995548429363124
s((I3
I3
I3
I1
I1
I6
tI3
tp600
F-0.99088854684399996
s((I4
I3
I5
I1
I0
I2
tI1
tp601
F0
s((I4
I3
I1
I1
I1
I6
tI1
tp602
F-0.987931
s((I5
I3
I4
I2
I0
I4
tI3
tp603
F3.5772948346428652
s((I4
I3
I2
I1
I3
I6
tI1
tp604
F-1.4165240891200002
s((F1
F4
F5
I1
I0
I6
tI3
tp605
F-0.91284951697186179
s((I5
I4
I2
I1
I0
I6
tI1
tp606
F-0.74073315399999995
s((I1
I3
I3
I3
I0
I6
tI3
tp607
F5.7643408091522259
s((I1
I3
I4
I2
I3
I6
tI2
tp608
F4.3260448891246011
s((I5
I3
I5
I3
I3
I6
tI3
tp609
F6.7789086693486755
s((I4
I2
I1
I2
I0
I6
tI2
tp610
F-0.42700000000000005
s((I3
I2
I3
I0
I0
I4
tI3
tp611
F-0.69999999999999996
s((I2
I4
I5
I3
I2
I6
tI1
tp612
F2.3734825482855437
s((I4
I4
I4
I2
I6
I6
tI2
tp613
F1.2299590116274035
s((I2
I4
I4
I2
I4
I6
tI3
tp614
F0.69999999999999996
s((I3
I3
I5
I1
I3
I6
tI3
tp615
F-0.99028346902464626
s((I1
I3
I4
I3
I4
I6
tI3
tp616
F0.69999999999999996
s((I3
I4
I5
I1
I6
I6
tI2
tp617
F-0.91893602261439999
s((I5
I2
I2
I1
I0
I6
tI2
tp618
F-0.97299999999999998
s((I4
I2
I5
I2
I0
I6
tI1
tp619
F1.7076661325483347
s((I2
I3
I4
I0
I0
I6
tI3
tp620
F-2.9995479616921301
s((I2
I4
I4
I3
I8
I6
tI1
tp621
F2.73
s((I3
I2
I3
I2
I0
I6
tI2
tp622
F3.3442584729352114
s((I5
I2
I4
I3
I0
I6
tI2
tp623
F3.3662580470399996
s((I2
I2
I1
I0
I0
I6
tI1
tp624
F-2.7929999999999997
s((I4
I3
I5
I0
I3
I6
tI2
tp625
F-2.9978129999999998
s((I3
I4
I3
I0
I0
I6
tI3
tp626
F-0.75419094280059817
s((I2
I3
I5
I2
I1
I6
tI3
tp627
F2.372173655806681
s((I3
I2
I5
I3
I0
I6
tI2
tp628
F2.9537090392709318
s((F5
F3
I5
I1
I0
I6
tI1
tp629
F0.031943176804891213
s((I4
I3
I4
I2
I0
I6
tI2
tp630
F-0.062157768540888281
s((I4
I4
I5
I2
I5
I6
tI3
tp631
F-0.40179999999999982
s((I4
I4
I4
I2
I0
I6
tI3
tp632
F2.8522903890984295
s((I4
I5
I5
I0
I0
I4
tI2
tp633
F-1.3300000000000001
s((I5
I2
I5
I1
I3
I6
tI2
tp634
F-0.97299999999999998
s((I2
I2
I3
I3
I3
I6
tI2
tp635
F3.4176576000000001
s((I5
I3
I0
I1
I0
I6
tI1
tp636
F-0.90999999999999992
s((I1
I4
I4
I3
I0
I6
tI2
tp637
F5.2059983989221035
s((I4
I3
I4
I2
I4
I6
tI1
tp638
F1.2811792252485237
s((I3
I3
I5
I3
I0
I6
tI1
tp639
F4.146330666769857
s((I3
I3
I4
I2
I0
I6
tI3
tp640
F2.8906655286760059
s((F4
F3
F5
I0
I0
I2
tI3
tp641
F0
s((I2
I3
I4
I0
I2
I6
tI2
tp642
F-0.79667528222303252
s((I0
I2
I4
I3
I6
I6
tI2
tp643
F2.3939999999999997
s((I5
I2
I4
I2
I1
I6
tI3
tp644
F1.3210455999999997
s((F1
F3
F4
I0
I0
I6
tI3
tp645
F-0.71708587977666616
s((I4
I3
I3
I1
I0
I6
tI3
tp646
F-1.3971057984408501
s((I2
I4
I5
I1
I0
I6
tI2
tp647
F-2.1041462666232316
s((I3
I3
I4
I3
I3
I6
tI2
tp648
F6.3981719400038006
s((F4
F4
F5
I2
I2
I6
tI3
tp649
F0.092895315385778998
s((I5
I3
I5
I0
I0
I6
tI2
tp650
F-2.3123239844307268
s((I4
I2
I3
I1
I0
I6
tI2
tp651
F-0.97981775257155046
s((I3
I1
I5
I0
I3
I6
tI2
tp652
F-0.69999999999999996
s((F3
F3
F4
I0
I0
I4
tI2
tp653
F-2.9998031699999999
s((I4
I2
I5
I3
I0
I4
tI1
tp654
F5.2046114924578744
s((I5
I5
I3
I2
I0
I6
tI3
tp655
F1.5049395250052662
s((I2
I5
I3
I3
I3
I6
tI3
tp656
F3.8376038920799993
s((I4
I2
I4
I0
I1
I6
tI3
tp657
F-2.0999999999999996
s((I2
I3
I2
I2
I0
I6
tI3
tp658
F-1.1899999999999999
s((I5
I3
I5
I1
I3
I6
tI2
tp659
F-0.97538230152999994
s((I5
I1
I4
I2
I1
I6
tI2
tp660
F-0.17376217599999988
s((I5
I1
I2
I1
I0
I6
tI1
tp661
F-0.90999999999999992
s((F4
F4
F4
I1
I0
I4
tI1
tp662
F-1.6922621958199999
s((I3
I1
I5
I3
I0
I4
tI3
tp663
F1.4580128286108358
s((I4
I3
I4
I2
I0
I4
tI1
tp664
F1.0297310129117534
s((I4
I3
I3
I1
I5
I6
tI2
tp665
F-0.69999999999999996
s((I5
I2
I2
I1
I0
I6
tI3
tp666
F-0.99756999999999996
s((F4
F2
F4
I2
I0
I6
tI3
tp667
F-0.48806207370890986
s((I3
I1
I4
I1
I0
I6
tI1
tp668
F-0.56306035959740197
s((I2
I4
I5
I1
I1
I6
tI2
tp669
F0.54093561418676139
s((F4
F3
F5
I0
I0
I4
tI1
tp670
F7.8581453339369398e-07
s((I2
I3
I4
I3
I0
I4
tI3
tp671
F1.8570215481395085
s((I0
I3
I3
I3
I0
I6
tI3
tp672
F2.73
s((I4
I4
I5
I0
I3
I6
tI3
tp673
F-2.7336246959531656
s((I5
I4
I2
I2
I0
I6
tI3
tp674
F-0.31058407549728817
s((I5
I2
I4
I3
I3
I6
tI3
tp675
F3.40326
s((I3
I3
I5
I3
I6
I6
tI1
tp676
F3.2465999999999999
s((I5
I3
I5
I1
I0
I2
tI1
tp677
F0
s((I3
I4
I4
I2
I4
I6
tI3
tp678
F-0.69999999999999996
s((I5
I2
I5
I3
I0
I6
tI3
tp679
F2.4735029968351512
s((I2
I3
I4
I0
I0
I4
tI3
tp680
F-0.93813999999999997
s((I3
I3
I4
I3
I2
I6
tI1
tp681
F3.5182701120000002
s((I4
I3
I5
I2
I0
I6
tI1
tp682
F0.22260660796007015
s((I5
I2
I4
I3
I0
I6
tI1
tp683
F1.3065120491172735
s((F4
F1
F4
I1
I0
I6
tI1
tp684
F-1.0670542611316671
s((I3
I3
I5
I3
I2
I6
tI1
tp685
F5.2662242781120003
s((I4
I3
I5
I3
I0
I6
tI3
tp686
F5.1450752925453047
s((I3
I4
I5
I3
I3
I6
tI2
tp687
F3.2668787646889959
s((I4
I1
I4
I2
I4
I6
tI3
tp688
F0.98642655999999973
s((I0
I3
I5
I3
I0
I6
tI2
tp689
F5.9774021071266832
s((I3
I3
I2
I1
I3
I6
tI2
tp690
F-0.21000000000000002
s((I3
I2
I4
I2
I3
I6
tI3
tp691
F2.661930747082399
s((I4
I1
I3
I1
I3
I6
tI2
tp692
F1.8005206098066615
s((I5
I4
I5
I1
I2
I6
tI2
tp693
F1.5782868332332576
s((I3
I2
I4
I3
I0
I6
tI1
tp694
F3.3152341710594331
s((I4
I1
I5
I1
I3
I6
tI2
tp695
F-2.0494512443283606
s((I3
I2
I4
I1
I0
I4
tI3
tp696
F-0.93928937725399619
s((I5
I4
I5
I1
I3
I6
tI1
tp697
F-0.91742349966400005
s((I3
I3
I5
I2
I2
I6
tI3
tp698
F1.301838573371392
s((I5
I2
I3
I2
I3
I6
tI3
tp699
F-0.21394667626285235
s((I2
I4
I5
I1
I3
I6
tI3
tp700
F-0.95327314611125602
s((I4
I3
I2
I0
I0
I6
tI3
tp701
F-1.599940951
s((I3
I3
I4
I2
I0
I4
tI3
tp702
F1.2633111007482123
s((I4
I2
I5
I1
I4
I6
tI2
tp703
F0.54380199999999979
s((I4
I3
I5
I2
I3
I6
tI3
tp704
F0.190084895097272
s((I5
I3
I3
I1
I0
I6
tI2
tp705
F-0.43132430963657453
s((F2
F3
F5
I1
I0
I6
tI1
tp706
F-1.3530761298626965
s((I4
I3
I1
I2
I4
I6
tI3
tp707
F0.69999999999999996
s((I1
I4
I4
I0
I3
I6
tI1
tp708
F0
s((I3
I3
I2
I0
I0
I6
tI2
tp709
F-2.9919728999999999
s((I4
I3
I5
I2
I10
I6
tI3
tp710
F-0.69999999999999996
s((I1
I2
I4
I1
I2
I6
tI3
tp711
F-0.23310238474901168
s((I3
I3
I5
I0
I9
I6
tI1
tp712
F-2.73
s((I3
I2
I5
I0
I2
I6
tI1
tp713
F-2.919
s((I2
I3
I5
I0
I3
I6
tI3
tp714
F0.63571539776575614
s((I4
I1
I4
I1
I0
I4
tI1
tp715
F-0.081900000000000028
s((I3
I4
I5
I1
I3
I4
tI2
tp716
F-0.4322919999999999
s((I1
I2
I4
I3
I11
I6
tI2
tp717
F2.0999999999999996
s((I5
I3
I3
I2
I3
I6
tI1
tp718
F2.0194222635416583
s((I5
I4
I5
I0
I0
I6
tI3
tp719
F-2.9999409510000001
s((I4
I4
I5
I0
I0
I0
tI3
tp720
F0.021811067446488558
s((I4
I3
I1
I3
I0
I6
tI1
tp721
F2.0999999999999996
s((I5
I4
I5
I1
I0
I6
tI1
tp722
F-2.9490548249894943
s((I4
I5
I4
I2
I0
I6
tI3
tp723
F1.8987136054134783
s((I3
I3
I5
I1
I6
I6
tI3
tp724
F-0.95357321166015996
s((I4
I2
I4
I1
I3
I6
tI3
tp725
F-0.26033220600721596
s((I5
I4
I5
I3
I5
I6
tI1
tp726
F1.8796834
s((I3
I2
I4
I2
I4
I6
tI1
tp727
F0.69999999999999996
s((I4
I0
I4
I1
I0
I6
tI1
tp728
F-0.99756999999999996
s((I5
I2
I5
I0
I0
I6
tI2
tp729
F-2.9756999999999998
s((I3
I2
I4
I2
I5
I6
tI2
tp730
F1.7922854586112
s((I4
I3
I5
I2
I1
I6
tI2
tp731
F-0.043115795187977479
s((I2
I4
I5
I1
I0
I4
tI2
tp732
F-0.68147799999999992
s((I5
I4
I5
I2
I0
I4
tI3
tp733
F-0.69162225588386195
s((I2
I3
I4
I1
I3
I6
tI1
tp734
F-0.69999999999999996
s((I2
I1
I5
I1
I0
I6
tI1
tp735
F0
s((F3
F4
F5
I0
I0
I4
tI2
tp736
F-2.7014641584510612
s((I4
I1
I3
I2
I0
I6
tI3
tp737
F2.5180112915694051
s((I3
I2
I4
I0
I0
I4
tI2
tp738
F-2.73
s((I2
I3
I4
I1
I2
I6
tI2
tp739
F-0.873888463
s((I1
I2
I4
I0
I0
I6
tI3
tp740
F-0.2661404602991071
s((I1
I3
I3
I1
I0
I6
tI1
tp741
F0.77354351731630311
s((I3
I4
I5
I2
I5
I6
tI2
tp742
F1.8012675558080609
s((I3
I3
I5
I3
I3
I6
tI3
tp743
F3.5895547195419537
s((I5
I3
I5
I3
I4
I6
tI1
tp744
F3.2967623486790449
s((I4
I3
I1
I2
I2
I6
tI2
tp745
F0.90999999999999992
s((I2
I2
I4
I3
I3
I6
tI1
tp746
F3.2236014719999999
s((I2
I2
I4
I2
I8
I6
tI2
tp747
F-0.69999999999999996
s((I3
I2
I5
I1
I5
I6
tI1
tp748
F-0.69999999999999996
s((I3
I4
I5
I3
I0
I6
tI1
tp749
F6.3847840399385998
s((I4
I3
I5
I1
I9
I6
tI2
tp750
F-1.0297000000000001
s((I5
I2
I3
I2
I0
I6
tI3
tp751
F2.5588963787151568
s((I4
I2
I5
I0
I2
I6
tI3
tp752
F-2.0999999999999996
s((I2
I1
I4
I0
I0
I6
tI3
tp753
F-1.0449827045481197
s((F4
F2
F5
I0
I0
I6
tI3
tp754
F-0.77940169626565903
s((I4
I2
I4
I1
I0
I6
tI1
tp755
F-0.29981763621671742
s((I3
I4
I5
I0
I3
I2
tI1
tp756
F0
s((I5
I4
I3
I2
I3
I6
tI1
tp757
F1.9313966628776948
s((I5
I2
I5
I1
I2
I6
tI1
tp758
F-0.90999999999999992
s((I3
I2
I4
I1
I0
I6
tI2
tp759
F-0.53039477196393148
s((I3
I1
I4
I0
I2
I6
tI2
tp760
F-2.0999999999999996
s((I2
I4
I5
I2
I5
I6
tI1
tp761
F1.3999999999999999
s((I3
I2
I5
I0
I3
I6
tI2
tp762
F-1.17489168559
s((I2
I2
I4
I3
I0
I6
tI1
tp763
F3.1142244522744047
s((I5
I4
I5
I1
I0
I4
tI1
tp764
F-0.29190000000000005
s((F3
F2
F5
I1
I2
I6
tI3
tp765
F-0.9999999928094685
s((I2
I1
I4
I2
I0
I4
tI3
tp766
F1.5819999999999999
s((I3
I2
I2
I2
I0
I6
tI2
tp767
F0.69999999999999996
s((I4
I2
I5
I2
I0
I4
tI3
tp768
F0.71568567782984782
s((I3
I1
I4
I0
I0
I6
tI2
tp769
F-2.9813700000000001
s((I2
I3
I5
I2
I5
I6
tI1
tp770
F0.69999999999999996
s((I2
I1
I4
I1
I0
I6
tI2
tp771
F-0.084670389763742804
s((I5
I1
I5
I2
I0
I4
tI1
tp772
F0.69999999999999996
s((I3
I4
I4
I1
I1
I6
tI3
tp773
F-0.65443000000000007
s((I3
I3
I3
I1
I3
I6
tI3
tp774
F-0.49133991753065714
s((I0
I3
I4
I3
I0
I6
tI2
tp775
F4.318115556309789
s((I0
I4
I2
I3
I0
I6
tI2
tp776
F2.0999999999999996
s((I5
I4
I5
I3
I0
I6
tI1
tp777
F2.6886649260855671
s((I3
I2
I4
I2
I0
I4
tI2
tp778
F-0.61055151697265353
s((I1
I3
I2
I1
I0
I6
tI3
tp779
F2.264077141741824
s((I5
I3
I3
I2
I0
I6
tI2
tp780
F3.416199327479184
s((I3
I4
I5
I1
I3
I6
tI3
tp781
F-2.3345699999999998
s((I4
I2
I5
I2
I1
I6
tI1
tp782
F1.8113340477586439
s((I5
I0
I4
I2
I3
I6
tI2
tp783
F1.2186536611009373
s((I4
I3
I2
I3
I0
I6
tI1
tp784
F3.7949068837052415
s((I1
I3
I5
I3
I0
I6
tI3
tp785
F3.105262363722824
s((I5
I2
I3
I2
I5
I6
tI2
tp786
F-0.27529599999999999
s((I5
I3
I4
I2
I6
I6
tI2
tp787
F2.6726103756799993
s((I5
I3
I1
I2
I3
I6
tI2
tp788
F1.65334498
s((I2
I2
I4
I2
I0
I6
tI2
tp789
F0.69999999999999996
s((I0
I4
I5
I0
I0
I6
tI2
tp790
F-1.3999999999999999
s((I3
I3
I5
I1
I1
I6
tI3
tp791
F-2.1832513571618954
s((I3
I1
I3
I0
I0
I6
tI2
tp792
F-2.9231606717921244
s((I1
I4
I4
I3
I6
I6
tI2
tp793
F0.69999999999999996
s((I5
I1
I5
I2
I1
I6
tI1
tp794
F0.90999999999999992
s((I2
I3
I2
I1
I0
I6
tI3
tp795
F-0.86086409165386479
s((I5
I3
I5
I3
I3
I6
tI1
tp796
F3.3129751820812032
s((I4
I4
I3
I1
I0
I6
tI2
tp797
F-0.95084608035704254
s((F3
F4
F5
I1
I0
I6
tI1
tp798
F-1.4257386882969929
s((I3
I2
I5
I0
I0
I4
tI1
tp799
F-2.0999999999999996
s((I4
I2
I5
I2
I3
I6
tI3
tp800
F1.6903429984453304
s((I4
I3
I5
I1
I3
I6
tI3
tp801
F-1.3747701994192152
s((I5
I3
I4
I3
I3
I6
tI2
tp802
F4.9290245383181546
s((I0
I2
I3
I3
I2
I6
tI1
tp803
F4.4026395506688001
s((I4
I4
I3
I0
I0
I6
tI2
tp804
F-2.9999409510000001
s((I4
I0
I4
I2
I0
I6
tI1
tp805
F0.64118886747962966
s((I4
I2
I5
I1
I0
I4
tI3
tp806
F0.092736306464571872
s((I3
I3
I4
I1
I4
I6
tI2
tp807
F-0.98668064270065303
s((I4
I2
I3
I3
I3
I6
tI2
tp808
F2.73
s((I3
I3
I4
I1
I2
I6
tI1
tp809
F-0.99998031700000001
s((I2
I3
I4
I3
I2
I6
tI3
tp810
F5.4039014399999994
s((I2
I2
I5
I0
I5
I6
tI3
tp811
F-1.3468
s((F2
F2
F2
I2
I0
I6
tI3
tp812
F0.69999999999999996
s((I2
I4
I5
I3
I3
I6
tI3
tp813
F3.6231424397615508
s((I2
I2
I4
I1
I0
I6
tI1
tp814
F-0.99738682796753986
s((I3
I4
I5
I0
I3
I6
tI1
tp815
F-2.0999999999999996
s((I0
I2
I5
I3
I0
I6
tI2
tp816
F4.2579714678085132
s((I3
I0
I5
I0
I0
I6
tI3
tp817
F-2.9756999999999998
s((I4
I4
I4
I2
I6
I6
tI1
tp818
F0.69999999999999996
s((I0
I2
I4
I3
I4
I6
tI2
tp819
F1.4068599999999998
s((I4
I3
I1
I1
I0
I6
tI1
tp820
F-0.99978129999999998
s((I0
I2
I4
I3
I5
I6
tI1
tp821
F3.3910716000000001
s((I4
I4
I5
I2
I8
I6
tI1
tp822
F1.12942144
s((I3
I3
I4
I0
I3
I6
tI2
tp823
F-2.919
s((I4
I2
I5
I1
I3
I4
tI3
tp824
F-0.97352100439999978
s((I0
I2
I4
I3
I0
I6
tI1
tp825
F5.1944231355427481
s((I4
I3
I3
I0
I3
I6
tI3
tp826
F-1.586473
s((I3
I2
I4
I0
I3
I6
tI1
tp827
F-1.4021074854451001
s((I4
I3
I5
I0
I0
I6
tI3
tp828
F-2.4042491690920373
s((I2
I1
I4
I1
I3
I6
tI3
tp829
F-0.9919
s((I2
I2
I4
I0
I3
I6
tI1
tp830
F-0.69999999999999996
s((I4
I2
I4
I0
I3
I6
tI1
tp831
F-2.9988336000000002
s((I3
I2
I5
I3
I0
I6
tI3
tp832
F6.64882926570154
s((I4
I4
I1
I2
I3
I6
tI3
tp833
F0.69999999999999996
s((I2
I3
I5
I2
I0
I6
tI3
tp834
F0.19706893925617544
s((I4
I3
I4
I2
I0
I6
tI3
tp835
F-1.4539436703964734
s((I4
I3
I5
I1
I6
I6
tI1
tp836
F-0.29757
s((I4
I4
I5
I2
I5
I6
tI2
tp837
F-0.02383694129768843
s((I4
I4
I4
I2
I0
I6
tI2
tp838
F2.4788313264215782
s((I3
I2
I3
I2
I3
I6
tI2
tp839
F2.1920318922096964
s((I3
I1
I4
I1
I1
I6
tI1
tp840
F-1.3929999999999998
s((I2
I3
I5
I3
I0
I6
tI1
tp841
F5.4482267793539272
s((F3
F3
F5
I0
I0
I6
tI1
tp842
F-2.9924810046506898
s((I5
I5
I5
I0
I0
I2
tI3
tp843
F0.076990797845072817
s((I5
I3
I2
I3
I0
I6
tI3
tp844
F0.69999999999999996
s((F4
F3
F5
I0
I0
I2
tI2
tp845
F6.4231116922943023e-05
s((I5
I1
I4
I2
I2
I6
tI1
tp846
F1.204
s((I4
I4
I5
I1
I0
I2
tI2
tp847
F0
s((I4
I1
I2
I1
I1
I6
tI1
tp848
F-0.69999999999999996
s((I3
I2
I4
I3
I6
I6
tI1
tp849
F3.0063179999999998
s((I4
I3
I5
I0
I3
I6
tI3
tp850
F-0.011425366998983708
s((I4
I3
I3
I3
I3
I6
tI3
tp851
F2.0999999999999996
s((I3
I3
I5
I2
I9
I6
tI2
tp852
F1.2921999999999998
s((I2
I3
I5
I1
I0
I4
tI1
tp853
F-0.83177672396347657
s((I3
I3
I4
I2
I2
I6
tI3
tp854
F-0.088339011307170701
s((I3
I3
I5
I2
I0
I4
tI1
tp855
F1.9095466578827627
s((I1
I4
I2
I1
I0
I6
tI3
tp856
F0.77354351731630311
s((I3
I2
I5
I3
I2
I6
tI2
tp857
F3.5203902276633743
s((I1
I3
I4
I1
I0
I6
tI2
tp858
F-0.10173326997015919
s((I2
I2
I4
I1
I6
I6
tI1
tp859
F-0.97269420064927936
s((I5
I3
I5
I0
I0
I6
tI3
tp860
F-2.9999999999360467
s((I4
I2
I3
I1
I0
I6
tI1
tp861
F-1.4042127203037933
s((I2
I3
I2
I3
I3
I6
tI3
tp862
F3.3741120000000002
s((I4
I4
I5
I2
I3
I6
tI3
tp863
F1.7202886349634157
s((I3
I3
I4
I0
I0
I4
tI1
tp864
F-0.69999999999999996
s((I5
I3
I2
I2
I3
I6
tI3
tp865
F1.6724073184000001
s((I2
I2
I4
I0
I0
I6
tI3
tp866
F-2.9999946855899999
s((I3
I1
I5
I1
I0
I6
tI3
tp867
F-0.99719856431170928
s((I1
I3
I4
I2
I0
I4
tI1
tp868
F2.9819999999999998
s((I3
I4
I4
I2
I3
I6
tI1
tp869
F2.4301926589331222
s((I4
I4
I2
I3
I0
I6
tI3
tp870
F2.5042596744359518
s((I5
I3
I5
I1
I3
I6
tI3
tp871
F-1.000763583047563
s((I2
I3
I5
I2
I0
I6
tI1
tp872
F0.11032336142058652
s((I4
I4
I2
I3
I2
I6
tI3
tp873
F2.9946000000000002
s((I3
I3
I4
I3
I5
I6
tI2
tp874
F2.4005871231999998
s((F4
F4
F5
I1
I0
I6
tI3
tp875
F-1.9919000000638107
s((I4
I3
I4
I2
I3
I6
tI3
tp876
F2.1058069314536745
s((I2
I4
I5
I3
I9
I6
tI2
tp877
F2.0999999999999996
s((I4
I3
I4
I2
I0
I4
tI2
tp878
F1.250079668453723
s((I4
I2
I4
I2
I0
I6
tI2
tp879
F-0.64825361218313771
s((I3
I1
I3
I1
I0
I6
tI1
tp880
F1.715417416192738
s((I2
I4
I4
I2
I0
I6
tI2
tp881
F-0.69999999999999996
s((I3
I3
I4
I2
I1
I6
tI1
tp882
F2.9902718986001271
s((I4
I2
I1
I0
I1
I6
tI1
tp883
F-2.3099999999999996
s((I4
I4
I5
I3
I0
I4
tI2
tp884
F2.9819999999999998
s((F5
F3
F1
I1
I1
I6
tI2
tp885
F-0.69999999999999996
s((I1
I4
I5
I3
I2
I6
tI1
tp886
F4.4171054242367234
s((I4
I3
I4
I2
I1
I4
tI1
tp887
F0.69999999999999996
s((I2
I1
I4
I3
I9
I6
tI3
tp888
F2.0999999999999996
s((I3
I3
I4
I3
I2
I6
tI2
tp889
F5.2877798399999998
s((I3
I4
I4
I2
I0
I6
tI3
tp890
F0.39432807580278173
s((I4
I1
I4
I2
I0
I6
tI1
tp891
F-0.091296438876205421
s((I3
I3
I5
I0
I0
I2
tI1
tp892
F-0.93201827130145087
s((I4
I0
I4
I1
I0
I4
tI2
tp893
F-0.69999999999999996
s((I3
I2
I3
I2
I3
I6
tI3
tp894
F2.3260223472639998
s((I5
I2
I2
I2
I4
I6
tI1
tp895
F0.69999999999999996
s((I2
I2
I5
I3
I2
I6
tI1
tp896
F4.4026395506688001
s((I3
I3
I4
I2
I4
I6
tI2
tp897
F1.4761307003671029
s((I5
I2
I2
I2
I5
I6
tI2
tp898
F0.69999999999999996
s((I3
I4
I5
I2
I0
I4
tI1
tp899
F0.56004455958258026
s((I4
I4
I4
I1
I6
I6
tI2
tp900
F-0.97299999999999998
s((I5
I2
I4
I2
I0
I6
tI1
tp901
F-0.34475429529121904
s((I4
I1
I5
I0
I2
I6
tI3
tp902
F-2.5556999999999999
s((I4
I4
I4
I1
I0
I6
tI1
tp903
F1.9918315898602885
s((I4
I1
I5
I1
I3
I6
tI1
tp904
F-0.21966337458023996
s((I3
I2
I4
I1
I0
I4
tI2
tp905
F-0.98157994961017603
s((I3
I4
I2
I0
I0
I6
tI2
tp906
F-2.73
s((I5
I2
I5
I1
I3
I6
tI3
tp907
F-0.97299999999999998
s((I3
I1
I5
I0
I0
I6
tI2
tp908
F-2.1895359035862212
s((I3
I3
I3
I3
I0
I6
tI2
tp909
F2.0999999999999996
s((I4
I3
I3
I1
I0
I6
tI2
tp910
F-0.28109679141425792
s((I1
I3
I5
I1
I3
I6
tI1
tp911
F-0.69999999999999996
s((I5
I2
I3
I2
I2
I6
tI3
tp912
F1.5083353599999998
s((I5
I2
I5
I2
I0
I4
tI3
tp913
F0.53712430975459635
s((I3
I5
I5
I1
I0
I6
tI1
tp914
F-2.0999999999999996
s((I1
I3
I5
I1
I2
I6
tI2
tp915
F-0.58045023339519997
s((I1
I4
I5
I1
I0
I4
tI1
tp916
F-0.21000000000000002
s((I5
I0
I5
I2
I3
I6
tI2
tp917
F0.69999999999999996
s((I0
I3
I4
I3
I3
I6
tI1
tp918
F2.9819999999999998
s((I5
I4
I1
I2
I0
I6
tI1
tp919
F1.6741940973389433
s((I3
I3
I2
I0
I0
I6
tI1
tp920
F-2.9756999999999998
s((I4
I3
I5
I3
I2
I6
tI3
tp921
F3.8765999999999998
s((I5
I2
I3
I3
I0
I6
tI3
tp922
F7.0454605886863941
s((I4
I4
I5
I0
I0
I6
tI2
tp923
F-2.5743299994575652
s((I5
I4
I5
I0
I0
I6
tI2
tp924
F-2.9998801115031002
s((I2
I2
I2
I3
I0
I6
tI1
tp925
F3.5258735461866557
s((I3
I2
I4
I2
I0
I6
tI2
tp926
F1.2134976248151961
s((I4
I2
I5
I2
I9
I6
tI3
tp927
F0.69999999999999996
s((I2
I2
I5
I3
I3
I6
tI3
tp928
F3.1971193191219953
s((I4
I4
I4
I0
I3
I6
tI1
tp929
F-2.9756999999999998
s((I5
I2
I4
I1
I0
I6
tI1
tp930
F-2.3729999999999998
s((I0
I1
I3
I3
I9
I6
tI2
tp931
F2.0999999999999996
s((I5
I2
I5
I0
I0
I6
tI3
tp932
F-2.73
s((I4
I3
I5
I2
I8
I6
tI2
tp933
F4.3947119999999993
s((I5
I4
I5
I1
I0
I6
tI2
tp934
F-2.5096658601750912
s((I4
I0
I5
I2
I3
I6
tI2
tp935
F1.4250501227942656
s((I4
I2
I5
I3
I0
I6
tI1
tp936
F3.4586155406446046
s((I3
I3
I5
I1
I6
I6
tI2
tp937
F-0.95183200000000001
s((I1
I2
I4
I3
I5
I6
tI3
tp938
F4.1572778011247351
s((I1
I3
I4
I3
I9
I6
tI2
tp939
F3.8370452736000003
s((I4
I3
I3
I1
I2
I6
tI1
tp940
F-0.99988832521899995
s((I5
I4
I5
I0
I3
I4
tI2
tp941
F0
s((I5
I2
I3
I2
I5
I6
tI1
tp942
F0.69999999999999996
s((I3
I4
I4
I0
I0
I6
tI1
tp943
F-0.27364438018361381
s((I3
I3
I4
I2
I2
I4
tI3
tp944
F2.3099999999999996
s((I5
I4
I5
I2
I0
I4
tI2
tp945
F0.37239738027139246
s((I2
I1
I4
I1
I6
I6
tI3
tp946
F-0.9919
s((I2
I1
I5
I1
I0
I6
tI2
tp947
F1.5852010191528267
s((I4
I5
I5
I0
I3
I2
tI1
tp948
F0
s((I5
I1
I3
I2
I2
I6
tI3
tp949
F1.9025439999999996
s((F3
F2
F4
I0
I0
I4
tI3
tp950
F-2.6475812999999997
s((I4
I3
I3
I3
I0
I6
tI1
tp951
F3.6485978035059592
s((I5
I5
I4
I1
I0
I6
tI1
tp952
F0
s((F1
F2
F5
I1
I0
I6
tI2
tp953
F-0.61472795794311441
s((I5
I3
I2
I1
I3
I6
tI3
tp954
F1.1422395157599998
s((I3
I4
I5
I1
I0
I4
tI3
tp955
F0.21630000000000005
s((I3
I4
I5
I2
I5
I6
tI3
tp956
F1.40056
s((I0
I4
I4
I3
I1
I6
tI2
tp957
F2.5810058897302062
s((I3
I1
I4
I2
I3
I6
tI3
tp958
F2.2651596799999996
s((I2
I2
I4
I3
I9
I6
tI1
tp959
F2.0999999999999996
s((I3
I4
I3
I3
I0
I6
tI2
tp960
F2.5114851761584704
s((I2
I4
I4
I2
I0
I6
tI3
tp961
F0.13738214333303844
s((I5
I2
I3
I2
I0
I6
tI2
tp962
F3.0464608591983029
s((I4
I1
I4
I1
I3
I6
tI3
tp963
F-2.3999999996125796
s((I2
I4
I5
I0
I0
I6
tI1
tp964
F0.90359339057295429
s((I0
I2
I4
I1
I2
I6
tI3
tp965
F0.69999999999999996
s((I4
I4
I5
I2
I3
I6
tI1
tp966
F-0.016041506228735791
s((I2
I2
I5
I3
I1
I6
tI2
tp967
F3.3497940000000002
s((I4
I1
I5
I2
I0
I6
tI2
tp968
F0.40733189162361999
s((I2
I1
I4
I2
I3
I6
tI3
tp969
F0.69999999999999996
s((I2
I2
I3
I2
I2
I6
tI1
tp970
F0.69999999999999996
s((I5
I3
I5
I2
I3
I6
tI3
tp971
F1.4653213871057738
s((I4
I2
I4
I1
I3
I6
tI1
tp972
F-1.0301303737900003
s((I3
I4
I5
I1
I1
I6
tI1
tp973
F-0.76733279802425225
s((I2
I2
I5
I3
I3
I6
tI2
tp974
F2.0999999999999996
s((I2
I3
I4
I2
I3
I6
tI1
tp975
F1.3601513632
s((I1
I2
I4
I3
I5
I6
tI2
tp976
F2.0999999999999996
s((I5
I4
I4
I3
I0
I6
tI3
tp977
F6.2856670547708173
s((I5
I4
I3
I2
I3
I6
tI2
tp978
F0.91059049715200002
s((I5
I4
I3
I2
I5
I6
tI1
tp979
F0.84699999999999998
s((I3
I2
I5
I0
I3
I6
tI3
tp980
F-2.9953620290999998
s((I5
I3
I5
I3
I6
I6
tI2
tp981
F6.3156343590617086
s((I2
I2
I4
I3
I0
I6
tI2
tp982
F1.8154080650307167
s((I2
I4
I4
I3
I5
I6
tI2
tp983
F2.0999999999999996
s((I3
I2
I3
I1
I0
I6
tI2
tp984
F-0.99379373267544813
s((I2
I2
I3
I1
I7
I6
tI2
tp985
F-0.13336316222854938
s((I4
I2
I5
I1
I3
I6
tI1
tp986
F-0.99817147632955849
s((I3
I1
I4
I0
I0
I6
tI1
tp987
F-2.9886422853000001
s((I1
I2
I4
I3
I0
I6
tI1
tp988
F4.3256533607083805
s((I5
I3
I4
I3
I5
I6
tI2
tp989
F3.1981496948359167
s((I3
I2
I2
I1
I4
I6
tI1
tp990
F-0.69999999999999996
s((I2
I2
I5
I3
I0
I6
tI1
tp991
F3.1907993054953474
s((I1
I3
I4
I3
I8
I6
tI1
tp992
F2.9819999999999998
s((I1
I3
I4
I3
I1
I6
tI2
tp993
F1.4812000000000001
s((I5
I2
I4
I2
I7
I6
tI3
tp994
F-0.095118822399999914
s((I3
I3
I4
I1
I6
I6
tI2
tp995
F-2.0999999999999996
s((F2
F3
F4
I2
I0
I6
tI1
tp996
F2.2313362500258735
s((I1
I4
I4
I1
I3
I4
tI1
tp997
F0
s((I4
I1
I3
I2
I3
I6
tI2
tp998
F1.0414065483707489
s((I3
I2
I4
I2
I0
I4
tI3
tp999
F0.75260173487602833
s((I5
I3
I3
I2
I0
I6
tI3
tp1000
F0.071204444485293283
s((I3
I2
I3
I3
I0
I4
tI3
tp1001
F1.3300000000000001
s((I4
I4
I5
I2
I6
I6
tI1
tp1002
F1.5097409248555214
s((I0
I3
I2
I0
I0
I6
tI3
tp1003
F0.23780397337466574
s((F3
F4
F4
I1
I0
I6
tI3
tp1004
F-1.1755343884330689
s((I2
I4
I3
I2
I6
I6
tI1
tp1005
F0.69999999999999996
s((I5
I3
I5
I3
I0
I6
tI3
tp1006
F5.9960934148922984
s((I4
I2
I4
I2
I0
I4
tI3
tp1007
F1.5810035122184285
s((I5
I1
I5
I0
I0
I6
tI3
tp1008
F-2.0999999999999996
s((I5
I3
I4
I2
I6
I6
tI1
tp1009
F3.3849558861691942
s((I2
I3
I4
I1
I0
I4
tI3
tp1010
F-0.97299999999999998
s((F3
F1
F5
I2
I1
I6
tI3
tp1011
F0.61599999999999988
s((I4
I0
I5
I2
I0
I6
tI3
tp1012
F1.4910268577600381
s((F5
F3
I5
I2
I0
I6
tI1
tp1013
F0.8250055260130631
s((F2
F2
F5
I1
I2
I6
tI3
tp1014
F-1.2195610000000001
s((I0
I4
I5
I0
I0
I6
tI3
tp1015
F-1.736
s((I4
I2
I5
I3
I0
I6
tI3
tp1016
F6.236387838819371
s((I2
I4
I4
I0
I0
I6
tI2
tp1017
F-0.89934389999999986
s((I1
I3
I5
I0
I0
I6
tI2
tp1018
F-1.9338223829256898
s((I4
I4
I5
I3
I0
I6
tI3
tp1019
F5.1662736661081352
s((I3
I3
I4
I0
I0
I6
tI1
tp1020
F-2.9993439
s((I3
I3
I5
I1
I5
I6
tI3
tp1021
F-0.97299999999999998
s((I2
I3
I2
I1
I0
I6
tI2
tp1022
F-0.87497199999999997
s((F2
F2
I5
I1
I0
I6
tI3
tp1023
F0.77011684511236256
s((I2
I3
I5
I3
I1
I6
tI1
tp1024
F1.7336653863247582
s((I4
I2
I5
I2
I3
I6
tI2
tp1025
F-0.60274181731787679
s((I2
I3
I2
I0
I0
I6
tI2
tp1026
F-2.8672370501609317
s((I4
I3
I5
I1
I3
I6
tI2
tp1027
F-2.4056607895133606
s((I5
I3
I4
I1
I3
I6
tI1
tp1028
F-0.36324430042459488
s((I4
I4
I3
I0
I0
I6
tI3
tp1029
F-2.9998031699999999
s((I5
I3
I2
I1
I0
I6
tI2
tp1030
F-2.4622709999999999
s((I4
I2
I5
I1
I0
I4
tI2
tp1031
F1.1546540074481046
s((I4
I2
I4
I2
I6
I6
tI3
tp1032
F2.1369414628203565
s((I5
I3
I1
I1
I0
I6
tI1
tp1033
F-0.29757
s((F4
F3
F5
I1
I0
I4
tI2
tp1034
F0.014806092504809687
s((I5
I4
I5
I2
I5
I6
tI1
tp1035
F0.69999999999999996
s((I3
I2
I2
I0
I0
I6
tI1
tp1036
F-2.0999999999999996
s((I2
I3
I4
I3
I2
I6
tI2
tp1037
F2.0999999999999996
s((I5
I2
I4
I2
I2
I6
tI1
tp1038
F1.0514131100400794
s((I1
I3
I4
I2
I0
I6
tI3
tp1039
F2.5676559725489043
s((I1
I3
I3
I3
I0
I6
tI1
tp1040
F0.69999999999999996
s((I2
I2
I5
I0
I5
I6
tI2
tp1041
F-2.73
s((I3
I1
I4
I0
I1
I6
tI2
tp1042
F-2.9927099999999998
s((I5
I2
I4
I2
I3
I6
tI2
tp1043
F2.906612551796071
s((F4
I5
F5
I0
I0
I0
tI3
tp1044
F0
s((I4
I2
I4
I2
I4
I6
tI3
tp1045
F1.2808865171199999
s((I4
I2
I4
I0
I0
I6
tI2
tp1046
F-2.9927099999999998
s((I1
I3
I4
I3
I0
I6
tI1
tp1047
F1.953677440635559
s((I2
I3
I5
I2
I6
I6
tI1
tp1048
F1.54554568
s((I0
I3
I4
I3
I1
I6
tI2
tp1049
F3.3259799999999999
s((I2
I3
I3
I0
I0
I6
tI1
tp1050
F-2.9927099999999998
s((I3
I3
I4
I0
I0
I2
tI2
tp1051
F0.69999999999999996
s((I1
I4
I5
I0
I3
I6
tI2
tp1052
F0
s((I2
I3
I5
I3
I2
I6
tI3
tp1053
F3.1038299561736364
s((I3
I3
I4
I0
I3
I6
tI3
tp1054
F-2.8559999999999999
s((I5
F3
F5
I3
I2
I6
tI2
tp1055
F2.0747402245805526
s((I2
I1
I3
I3
I0
I6
tI1
tp1056
F3.6006994974720001
s((I3
I3
I3
I3
I0
I6
tI3
tp1057
F2.3208885862446134
s((I2
I3
I4
I0
I0
I6
tI1
tp1058
F-1.8465558371784772
s((I2
I2
I5
I1
I6
I6
tI2
tp1059
F-0.90999999999999992
s((I4
I4
I4
I2
I5
I6
tI2
tp1060
F1.8024277747839998
s((I4
I3
I5
I0
I0
I6
tI2
tp1061
F-2.5786440696126336
s((I4
I3
I5
I1
I2
I6
tI2
tp1062
F-1.6895979799999998
s((I2
I4
I4
I3
I3
I6
tI1
tp1063
F5.9160769527850317
s((I4
I2
I4
I0
I3
I6
tI2
tp1064
F-2.9978129999999998
s((I2
I3
I3
I3
I5
I6
tI1
tp1065
F0.17569999999999997
s((I2
I3
I5
I2
I1
I6
tI1
tp1066
F0.69999999999999996
s((I2
I3
I3
I0
I2
I6
tI3
tp1067
F0.47866000000000009
s((I2
I3
I5
I2
I0
I6
tI2
tp1068
F-1.7885149278976484
s((I5
I3
I3
I3
I0
I6
tI3
tp1069
F6.1509353654515646
s((I3
I3
I4
I3
I1
I6
tI2
tp1070
F2.73
s((I3
I2
I5
I2
I3
I6
tI2
tp1071
F2.2603005653664958
s((I4
I2
I2
I1
I3
I6
tI2
tp1072
F-0.69999999999999996
s((I2
I3
I5
I3
I0
I6
tI2
tp1073
F-0.40921157759455817
s((I3
I3
I5
I0
I0
I6
tI2
tp1074
F-1.3652982648727492
s((I4
I2
I4
I2
I3
I6
tI1
tp1075
F1.6991151255413124
s((F4
F2
F5
I2
I2
I6
tI1
tp1076
F1.1368201576569241
s((I3
I2
I5
I2
I2
I6
tI1
tp1077
F-1.4871956101776993
s((I4
I3
I4
I1
I3
I6
tI1
tp1078
F-0.99995279034130424
s((I3
I3
I4
I2
I0
I6
tI1
tp1079
F2.9943204780168724
s((I4
I3
I4
I1
I9
I6
tI3
tp1080
F-2.1629999999999998
s((F2
F3
I5
I0
I0
I4
tI2
tp1081
F0.64729000218691102
s((I2
I1
I2
I0
I3
I6
tI2
tp1082
F-2.0999999999999996
s((I5
I2
I4
I2
I1
I6
tI1
tp1083
F1.1436039999999998
s((F4
F3
F5
I1
I0
I6
tI1
tp1084
F-1.6999999414322307
s((I1
I3
I3
I0
I3
I6
tI1
tp1085
F-1.3999999999999999
s((I3
I1
I2
I1
I5
I6
tI2
tp1086
F0
s((I2
I3
I5
I1
I0
I4
tI2
tp1087
F-0.90999999999999992
s((I3
I3
I4
I2
I2
I6
tI2
tp1088
F0.69999999999999996
s((I3
I3
I4
I1
I0
I4
tI2
tp1089
F-0.87824799999999992
s((I1
I4
I2
I1
I0
I6
tI2
tp1090
F2.2218998352536667
s((I2
I3
I3
I1
I0
I4
tI3
tp1091
F-2.0999999999999996
s((F5
F2
I5
I1
I3
I4
tI1
tp1092
F0
s((I4
I4
I5
I2
I3
I6
tI2
tp1093
F1.8720787777536652
s((I1
I2
I5
I3
I5
I6
tI1
tp1094
F2.919
s((I4
I2
I5
I3
I0
I4
tI3
tp1095
F4.0376697598520046
s((I0
I2
I4
I3
I12
I6
tI3
tp1096
F2.0999999999999996
s((I5
I2
I5
I2
I0
I6
tI1
tp1097
F0.83875286158815721
s((I4
I3
I3
I2
I0
I6
tI1
tp1098
F0.64982765750956961
s((I2
I2
I4
I0
I0
I6
tI2
tp1099
F-0.73403303194524228
s((I3
I1
I5
I1
I0
I6
tI2
tp1100
F-2.3249177836594317
s((I3
I3
I4
I2
I6
I6
tI2
tp1101
F2.5293780004296273
s((I3
I3
I4
I3
I0
I6
tI2
tp1102
F3.5938843862357839
s((I2
I3
I3
I3
I0
I6
tI3
tp1103
F5.5276298914310598
s((I2
I1
I5
I2
I0
I6
tI3
tp1104
F0.69999999999999996
s((I5
I3
I5
I1
I5
I6
tI1
tp1105
F0.69999999999999996
s((I4
I3
I4
I2
I9
I6
tI1
tp1106
F1.9560768552483256
s((F2
F3
F4
I1
I0
I6
tI3
tp1107
F-0.99989262430485371
s((I3
I5
I4
I0
I0
I6
tI3
tp1108
F0.042616471423297872
s((I4
I2
I3
I1
I6
I6
tI1
tp1109
F-0.69999999999999996
s((F4
F4
F5
I1
I0
I6
tI2
tp1110
F-2.8180044534082969
s((I4
I3
I4
I2
I3
I6
tI2
tp1111
F0.045517561007858198
s((F3
F2
F5
I1
I0
I6
tI1
tp1112
F-1.0092891232666092
s((I5
I2
I5
I2
I3
I6
tI1
tp1113
F1.1536071592750758
s((I4
I3
I4
I2
I0
I4
tI3
tp1114
F3.7281458768635698
s((I4
I2
I4
I2
I0
I6
tI1
tp1115
F-0.078211702393353733
s((I4
I2
I1
I1
I0
I6
tI1
tp1116
F0.95152675136298526
s((I4
I4
I5
I1
I0
I4
tI1
tp1117
F-0.71999998994323788
s((I5
I4
I2
I2
I2
I6
tI1
tp1118
F1.1422599999999998
s((I1
I2
I3
I3
I12
I6
tI2
tp1119
F2.73
s((I5
I3
I5
I3
I0
I6
tI2
tp1120
F2.0753402125565001
s((I5
I3
I2
I2
I5
I6
tI2
tp1121
F-0.24807999999999986
s((I2
I3
I1
I0
I0
I6
tI3
tp1122
F-2.1715699713021861
s((I3
I3
I4
I2
I1
I6
tI2
tp1123
F0.012420126140348486
s((I4
I4
I4
I1
I3
I6
tI3
tp1124
F-0.32367653064195778
s((I3
I2
I4
I0
I0
I6
tI1
tp1125
F-1.0536833891492932
s((I2
I2
I4
I3
I2
I6
tI2
tp1126
F2.3087651614719999
s((I5
I3
I5
I2
I2
I6
tI2
tp1127
F2.3747452001784422
s((I4
I4
I5
I3
I0
I4
tI1
tp1128
F1.9534482224780421
s((I4
I2
I4
I1
I2
I6
tI2
tp1129
F-0.99927100000000002
s((I1
I1
I3
I3
I0
I6
tI3
tp1130
F4.2009792964607993
s((F5
F2
F2
I2
I0
I6
tI2
tp1131
F-0.70394071688496185
s((I3
I2
I4
I1
I2
I6
tI3
tp1132
F-1.3929999999999998
s((I2
I2
I5
I3
I18
I6
tI2
tp1133
F2.0999999999999996
s((I1
I4
I4
I3
I3
I6
tI3
tp1134
F1.8023978145551818
s((I1
I4
I3
I2
I3
I6
tI3
tp1135
F2.0999999999999996
s((I4
I1
I4
I2
I0
I6
tI2
tp1136
F-0.40784951837877492
s((I3
I3
I1
I2
I4
I6
tI1
tp1137
F0.69999999999999996
s((F3
F3
F5
I0
I0
I2
tI2
tp1138
F0.00046300819224935532
s((I4
I4
I2
I0
I0
I6
tI2
tp1139
F-2.0999999999999996
s((I3
I3
I1
I2
I5
I6
tI2
tp1140
F1.3999999999999999
s((I1
I2
I4
I3
I2
I6
tI3
tp1141
F3.9559800000000003
s((I4
I3
I5
I3
I0
I6
tI1
tp1142
F3.7863490516820244
s((I2
I2
I5
I2
I3
I6
tI1
tp1143
F1.4704493764069138
s((I3
I2
I4
I2
I3
I6
tI1
tp1144
F0.62143841234239039
s((I3
I3
I2
I1
I0
I6
tI2
tp1145
F-2.18757
s((I3
I4
I5
I2
I4
I6
tI2
tp1146
F-0.29195459103999988
s((I1
I3
I5
I1
I7
I6
tI2
tp1147
F0.69999999999999996
s((I5
I2
I4
I2
I0
I6
tI2
tp1148
F-0.0046773766779732995
s((I3
I4
I4
I2
I0
I6
tI1
tp1149
F2.3579658575343614
s((I3
I4
I3
I1
I0
I6
tI1
tp1150
F-0.98779396613050008
s((I5
I4
I5
I1
I3
I6
tI3
tp1151
F-0.93935829851479125
s((I3
I1
I5
I0
I0
I6
tI3
tp1152
F-2.7297286059249362
s((I5
I2
I3
I2
I3
I6
tI1
tp1153
F1.3546986146154496
s((I4
I3
I2
I0
I0
I6
tI1
tp1154
F-2.9999028466680424
s((I4
I2
I4
I1
I0
I6
tI2
tp1155
F-0.67344015292250248
s((I5
I2
I2
I2
I2
I6
tI1
tp1156
F1.4307594674799999
s((I0
I3
I2
I2
I0
I6
tI1
tp1157
F0
s((I4
I3
I5
I2
I3
I6
tI1
tp1158
F1.8206506926427264
s((I4
I3
I1
I2
I4
I6
tI1
tp1159
F0.69999999999999996
s((I3
I3
I2
I3
I0
I6
tI1
tp1160
F3.7113689600532389
s((I4
I4
I4
I2
I3
I6
tI3
tp1161
F-0.57059608995259059
s((I2
I3
I5
I0
I1
I4
tI3
tp1162
F-1.3999999999999999
s((I0
I1
I3
I3
I0
I6
tI1
tp1163
F3.9559800000000003
s((I4
I1
I5
I1
I0
I6
tI2
tp1164
F-0.99069003674564415
s((I3
I1
I4
I1
I0
I4
tI1
tp1165
F-0.99756999999999996
s((I4
I4
I5
I0
I0
I6
tI3
tp1166
F-2.9943272707668536
s((I1
I2
I4
I3
I8
I6
tI1
tp1167
F3.6787134720000001
s((I4
I2
I5
I1
I0
I4
tI1
tp1168
F-2.399884474376015
s((I3
I2
I5
I1
I8
I6
tI2
tp1169
F-0.69999999999999996
s((I3
I2
I4
I2
I0
I6
tI3
tp1170
F-0.35937242050042073
s((I4
I0
I3
I1
I0
I6
tI2
tp1171
F-0.69999999999999996
s((I3
I1
I5
I1
I3
I6
tI3
tp1172
F-0.90999999999999992
s((I2
I4
I5
I0
I2
I6
tI2
tp1173
F-2.3477999999999999
s((I5
I4
I5
I1
I0
I6
tI3
tp1174
F-1.1235450936109528
s((I4
I3
I5
I2
I5
I6
tI1
tp1175
F1.9245898221347422
s((I3
I3
I5
I1
I6
I6
tI1
tp1176
F-0.93047110905548802
s((I1
I2
I3
I3
I0
I6
tI1
tp1177
F4.9544597426698092
s((F5
F2
I5
I1
I0
I6
tI2
tp1178
F-2.399987181756285
s((I2
I4
I5
I0
I0
I6
tI2
tp1179
F-2.9999981214833769
s((I4
I3
I3
I1
I2
I6
tI2
tp1180
F0.69472899999999993
s((I5
I4
I3
I2
I0
I6
tI1
tp1181
F2.9393224692855306
s((I4
I3
I5
I2
I0
I4
tI1
tp1182
F-0.65695171852561807
s((I4
I3
I1
I3
I1
I6
tI2
tp1183
F3.31968
s((I4
I1
I5
I0
I3
I6
tI2
tp1184
F-1.2300386557322345
s((I4
I0
I5
I1
I3
I6
tI2
tp1185
F-0.29407254319561793
s((I3
I2
I2
I2
I2
I6
tI3
tp1186
F1.3999999999999999
s((I4
I4
I5
I2
I7
I6
tI1
tp1187
F-0.069476028475414786
s((I4
I1
I3
I2
I0
I6
tI1
tp1188
F1.1655592283992608
s((F3
F2
F5
I1
I0
I4
tI2
tp1189
F-2.380241553740106
s((I2
I2
I3
I1
I1
I6
tI1
tp1190
F0.69999999999999996
s((I4
I3
I3
I3
I0
I6
tI2
tp1191
F2.73
s((I4
I2
I5
I1
I10
I6
tI3
tp1192
F0.69999999999999996
s((F1
F2
I5
I1
I0
I6
tI3
tp1193
F0
s((I5
I4
I4
I2
I3
I6
tI2
tp1194
F-0.30370695434151096
s((I5
I3
I5
I3
I4
I6
tI3
tp1195
F0.69999999999999996
s((I3
I4
I5
I3
I0
I6
tI3
tp1196
F4.5221864447142446
s((I3
I2
I4
I2
I6
I6
tI1
tp1197
F1.6625603680000001
s((I5
I2
I3
I2
I0
I6
tI1
tp1198
F0.02368058322071942
s((I3
I3
I3
I2
I3
I6
tI1
tp1199
F0.43733664900190172
s((I5
I5
I5
I1
I3
I6
tI1
tp1200
F2.4164509719923761
s((I4
I3
I3
I1
I0
I4
tI2
tp1201
F-0.99927100000000002
s((I1
I3
I4
I3
I3
I6
tI3
tp1202
F4.2592923798606597
s((I5
I3
I5
I2
I3
I6
tI2
tp1203
F0.049333536207615936
s((I4
I2
I4
I1
I0
I6
tI3
tp1204
F-2.8180025215105573
s((I3
I2
I3
I2
I2
I6
tI2
tp1205
F1.0246599999999999
s((I3
I3
I4
I1
I3
I6
tI1
tp1206
F-0.89718055084576132
s((I3
I2
I5
I1
I6
I6
tI3
tp1207
F-1.0596708172254132
s((I5
I4
I4
I3
I0
I6
tI2
tp1208
F3.4938638447859338
s((I5
I1
I3
I2
I4
I6
tI1
tp1209
F0.69999999999999996
s((I4
I3
I4
I2
I4
I6
tI2
tp1210
F1.9286314632309758
s((I2
I2
I4
I3
I0
I6
tI3
tp1211
F2.079459966479674
s((F5
F4
F4
I2
I0
I6
tI2
tp1212
F-0.69512500296878843
s((I3
I4
I4
I1
I5
I6
tI1
tp1213
F-0.90999999999999992
s((I3
I2
I5
I1
I3
I6
tI1
tp1214
F-2.8195178831400001
s((I2
I4
I3
I0
I0
I6
tI2
tp1215
F-1.3999999999999999
s((I4
I2
I5
I1
I3
I6
tI2
tp1216
F-1.0179384008278654
s((I4
I3
I5
I1
I5
I6
tI3
tp1217
F-2.4117846900000002
s((I4
I3
I4
I0
I6
I6
tI1
tp1218
F-2.5778129999999999
s((I4
I1
I5
I1
I0
I4
tI3
tp1219
F0.013910399999999996
s((I3
I3
I3
I1
I3
I6
tI1
tp1220
F-0.69999999999999996
s((I5
I3
I2
I1
I2
I6
tI2
tp1221
F-0.90999999999999992
s((I4
I3
I2
I1
I0
I6
tI3
tp1222
F-0.72557285509693181
s((I3
I3
I4
I1
I6
I6
tI3
tp1223
F-0.99999409510000004
s((I5
I1
I4
I3
I0
I6
tI2
tp1224
F5.9982970530169126
s((I0
I2
I4
I3
I8
I6
tI2
tp1225
F2.919
s((I2
I3
I4
I2
I0
I6
tI2
tp1226
F2.3355105095150077
s((I2
I1
I5
I3
I0
I6
tI1
tp1227
F4.1783139780940175
s((I4
I2
I5
I2
I3
I6
tI1
tp1228
F2.1435850638617389
s((I2
I3
I5
I0
I1
I6
tI2
tp1229
F-0.51852046683414188
s((I5
I3
I4
I2
I3
I6
tI2
tp1230
F1.9458220949745351
s((I3
I4
I4
I1
I0
I6
tI2
tp1231
F-0.9416979439578117
s((I5
I3
I5
I3
I1
I6
tI1
tp1232
F2.8422052741317034
s((I5
I2
I4
I2
I5
I6
tI2
tp1233
F1.6095094328418673
s((I4
I2
I5
I2
I10
I6
tI3
tp1234
F2.5700639999999999
s((I2
I2
I5
I2
I0
I4
tI3
tp1235
F1.3300000000000001
s((I2
I4
I1
I1
I0
I6
tI2
tp1236
F-0.69999999999999996
s((I4
I3
I4
I1
I0
I6
tI3
tp1237
F-0.99697238861245141
s((I1
I1
I4
I1
I0
I6
tI3
tp1238
F-0.69999999999999996
s((I3
I3
I2
I3
I3
I6
tI3
tp1239
F3.6119999999999997
s((I2
I2
I5
I0
I0
I6
tI2
tp1240
F-0.031844689390496353
s((I4
I3
I4
I0
I0
I6
tI1
tp1241
F-2.9978129999999998
s((I2
I3
I4
I1
I0
I4
tI2
tp1242
F-2.3638523999999999
s((I5
I3
I3
I1
I3
I6
tI1
tp1243
F-1.5190000000000001
s((F3
F3
F5
I0
I0
I4
tI2
tp1244
F5.836667938546007e-05
s((I5
F3
I5
I2
I0
I6
tI2
tp1245
F-0.78237411499394771
s((I4
I2
I5
I3
I0
I6
tI2
tp1246
F2.0999999999999996
s((I1
I3
I2
I0
I0
I6
tI1
tp1247
F-2.6837999999999997
s((I1
I4
I5
I0
I0
I6
tI1
tp1248
F-2.6459999999999999
s((I5
I4
I5
I3
I6
I6
tI2
tp1249
F1.8434959726059521
s((I4
I3
I4
I1
I2
I6
tI3
tp1250
F-0.85067830338400008
s((I4
I4
I5
I3
I0
I6
tI2
tp1251
F7.1134291330869122
s((I4
I2
I3
I0
I0
I6
tI2
tp1252
F-2.994071629479361
s((I2
I2
I5
I1
I0
I6
tI2
tp1253
F-1.9412855363953274
s((I3
I3
I5
I1
I4
I6
tI3
tp1254
F-0.56723651269640984
s((I3
I3
I4
I1
I3
I6
tI3
tp1255
F-0.9919
s((I2
I4
I5
I2
I0
I6
tI1
tp1256
F0.40837919555673385
s((I4
I3
I4
I2
I5
I6
tI3
tp1257
F-0.086340630321673384
s((I3
I3
I5
I2
I0
I6
tI2
tp1258
F0.82089171053906895
s((I2
I3
I3
I1
I0
I6
tI1
tp1259
F-0.87507402060891193
s((I5
I1
I5
I2
I3
I6
tI3
tp1260
F2.4931847663924502
s((I5
I4
I3
I1
I0
I6
tI2
tp1261
F-0.99831514387118969
s((I5
I3
I3
I3
I0
I6
tI1
tp1262
F4.4333729579195085
s((I4
I0
I4
I2
I0
I6
tI3
tp1263
F-0.20396160798275664
s((I5
I3
I2
I1
I0
I6
tI3
tp1264
F-1.0324464489461862
s((I5
I3
I1
I2
I0
I6
tI1
tp1265
F0.69999999999999996
s((I5
I3
I4
I2
I0
I6
tI1
tp1266
F1.4834617672189516
s((F0
F1
F2
I1
I0
I6
tI3
tp1267
F0
s((I5
I3
I2
I2
I0
I6
tI3
tp1268
F0.20853263538660149
s((I3
I3
I5
I2
I4
I6
tI1
tp1269
F0.69999999999999996
s((I1
I3
I4
I2
I1
I6
tI1
tp1270
F4.1440029539327998
s((I4
I3
I5
I1
I0
I4
tI3
tp1271
F-2.8160750946226059
s((I3
I3
I5
I3
I3
I6
tI1
tp1272
F2.4814497871573113
s((I4
I2
I3
I2
I3
I6
tI1
tp1273
F-0.69999999999999996
s((I3
I3
I5
I0
I2
I6
tI2
tp1274
F-2.73
s((I3
I1
I4
I3
I2
I6
tI1
tp1275
F2.0999999999999996
s((F4
I5
F5
I0
I0
I0
tI2
tp1276
F0
s((I3
I3
I5
I0
I3
I6
tI1
tp1277
F-2.9944133560550998
s((I4
I2
I4
I2
I4
I6
tI2
tp1278
F1.9185784244569597
s((I2
I4
I5
I3
I3
I6
tI1
tp1279
F2.0999999999999996
s((I1
I3
I4
I3
I0
I6
tI2
tp1280
F2.8291157805595057
s((I4
I3
I2
I2
I2
I6
tI2
tp1281
F-0.16772957295001589
s((I3
I3
I1
I1
I1
I6
tI2
tp1282
F-2.0999999999999996
s((I3
I2
I3
I2
I3
I6
tI1
tp1283
F1.9039999999999999
s((I3
I0
I5
I0
I0
I6
tI1
tp1284
F-2.0999999999999996
s((I3
I4
I5
I1
I2
I6
tI1
tp1285
F-0.9919
s((I4
I5
I5
I0
I0
I6
tI3
tp1286
F-2.73
s((I5
I1
I5
I3
I0
I6
tI3
tp1287
F7.1579821552111564
s((I4
I4
I3
I2
I3
I6
tI3
tp1288
F-0.40312777710655001
s((I4
I3
I4
I1
I5
I6
tI1
tp1289
F-2.0999999999999996
s((I0
I2
I4
I3
I5
I6
tI3
tp1290
F2.0999999999999996
s((I5
I3
I5
I3
I2
I6
tI1
tp1291
F2.0629875608057788
s((I5
I3
I4
I2
I2
I6
tI3
tp1292
F1.8772387927745164
s((I4
I2
I5
I1
I3
I4
tI1
tp1293
F-0.21000000000000002
s((I5
I2
I4
I2
I4
I6
tI1
tp1294
F1.1615871231999999
s((I2
I3
I4
I1
I6
I6
tI3
tp1295
F1.1501991018068645
s((I3
I3
I4
I3
I1
I4
tI3
tp1296
F2.0999999999999996
s((I4
I2
I3
I2
I0
I6
tI1
tp1297
F0.057782496346549639
s((I5
I3
I5
I2
I10
I6
tI2
tp1298
F0.69999999999999996
s((I3
I3
I4
I1
I7
I6
tI1
tp1299
F-0.90999999999999992
s((I4
I4
I4
I2
I5
I6
tI3
tp1300
F2.960891725383199
s((I4
I3
I5
I1
I2
I6
tI3
tp1301
F-0.29962638498308514
s((I4
I2
I4
I0
I3
I6
tI3
tp1302
F-2.9978129999999998
s((I2
I4
I1
I0
I3
I6
tI1
tp1303
F0
s((I2
I2
I4
I1
I2
I6
tI1
tp1304
F-0.94922514820000004
s((I3
I3
I4
I0
I9
I6
tI3
tp1305
F-1.3300000000000001
s((I3
I2
I5
I3
I0
I6
tI1
tp1306
F1.296892783933721
s((I2
I3
I3
I0
I2
I6
tI2
tp1307
F-2.3099999999999996
s((I4
I4
I5
I2
I0
I6
tI2
tp1308
F0.53048767519732465
s((I0
I3
I5
I1
I3
I6
tI1
tp1309
F0
s((I4
I3
I2
I2
I0
I6
tI1
tp1310
F3.2864515407468273
s((I4
I3
I4
I2
I0
I6
tI1
tp1311
F0.62928290744924054
s((I3
I2
I5
I2
I3
I6
tI3
tp1312
F-0.69999999999999996
s((I0
I4
I5
I3
I3
I6
tI2
tp1313
F1.9822689324669838
s((I2
I3
I5
I3
I0
I6
tI3
tp1314
F1.0749179264555533
s((I4
I2
I5
I2
I2
I6
tI3
tp1315
F0.71234969275977744
s((I3
I3
I5
I0
I0
I6
tI3
tp1316
F-2.9987249590605551
s((I1
I4
I5
I2
I0
I6
tI1
tp1317
F1.4603230479905589
s((I4
I2
I5
I2
I2
I6
tI2
tp1318
F1.3151120382668799
s((I4
I3
I4
I1
I3
I6
tI2
tp1319
F-0.99984323811314402
s((I5
I3
I5
I2
I0
I4
tI1
tp1320
F2.3536863950107971
s((I3
I4
I1
I1
I2
I6
tI3
tp1321
F0
s((I3
I3
I5
I0
I0
I0
tI2
tp1322
F0
s((I1
I2
I5
I2
I0
I6
tI2
tp1323
F4.3916913242874553
s((I3
I2
I4
I3
I6
I6
tI3
tp1324
F2.73
s((I4
I3
I5
I2
I4
I6
tI2
tp1325
F2.3838958694488088
s((I5
I3
I5
I2
I8
I6
tI1
tp1326
F2.0406399999999998
s((F4
F3
F5
I1
I0
I6
tI2
tp1327
F-2.4000000870113762
s((I3
I3
I3
I0
I0
I6
tI2
tp1328
F-2.9999485432511106
s((I3
I3
I4
I0
I0
I6
tI3
tp1329
F-2.299940951
s((I2
I3
I5
I1
I0
I4
tI3
tp1330
F0.61731075202754371
s((F3
F3
F4
I1
I0
I4
tI3
tp1331
F-1.3360000005398556
s((I2
I2
I4
I1
I0
I4
tI1
tp1332
F1.2849708382
s((I5
I3
I5
I0
I0
I6
tI1
tp1333
F-2.999999999978519
s((I5
I3
I4
I1
I0
I6
tI3
tp1334
F-0.90999999999999992
s((I4
I4
I3
I1
I3
I6
tI1
tp1335
F-0.46957535622654251
s((I5
I2
I4
I3
I1
I6
tI1
tp1336
F5.8457014732824932
s((I2
I2
I1
I1
I5
I6
tI3
tp1337
F-0.90999999999999992
s((I5
I3
I0
I2
I1
I6
tI1
tp1338
F2.1562564752201858
s((I4
I2
I2
I1
I0
I6
tI3
tp1339
F1.5116384172366257
s((I3
I1
I5
I1
I0
I6
tI1
tp1340
F-0.99085744688544164
s((I3
I5
I5
I0
I0
I2
tI1
tp1341
F0.0080015040000000013
s((I4
I5
I5
I1
I0
I6
tI2
tp1342
F-1.8452031929138775
s((I2
I3
I5
I1
I1
I6
tI1
tp1343
F-0.90999999999999992
s((I3
I2
I4
I0
I7
I6
tI2
tp1344
F-2.919
s((I2
I3
I4
I0
I6
I6
tI2
tp1345
F-2.73
s((I3
I2
I3
I3
I3
I6
tI3
tp1346
F3.8985309124607994
s((I2
I1
I5
I2
I0
I6
tI2
tp1347
F-0.034215571955812783
s((I3
I1
I5
I2
I0
I6
tI2
tp1348
F2.4696242444573033
s((I1
I3
I2
I3
I0
I6
tI2
tp1349
F5.4067630081759255
s((I5
I3
I5
I1
I3
I6
tI1
tp1350
F-0.9919
s((I2
I3
I4
I1
I0
I6
tI2
tp1351
F-0.93159708632581539
s((I3
I2
I5
I0
I2
I6
tI2
tp1352
F-2.2997099999999997
s((I5
I4
I1
I1
I0
I6
tI1
tp1353
F-2.3607264155999999
s((I4
I4
I5
I1
I0
I6
tI1
tp1354
F-1.0037426734801427
s((I3
I1
I1
I0
I0
I6
tI2
tp1355
F-2.0999999999999996
s((I4
I3
I4
I2
I3
I6
tI1
tp1356
F1.5656452863453973
s((I3
I2
I5
I2
I0
I6
tI1
tp1357
F1.3843793076040332
s((I1
I3
I4
I1
I6
I6
tI2
tp1358
F2.0588038335839491
s((I3
I3
I4
I2
I3
I6
tI3
tp1359
F0.69999999999999996
s((I2
I4
I5
I1
I1
I6
tI1
tp1360
F-0.87361741843802743
s((I2
I3
I5
I0
I2
I6
tI1
tp1361
F-1.0768170816136804
s((I4
I3
I4
I3
I0
I6
tI3
tp1362
F5.6659351662610637
s((I0
I3
I4
I1
I0
I4
tI2
tp1363
F0
s((I3
I4
I5
I2
I0
I6
tI1
tp1364
F-0.048873149950467543
s((I2
I3
I5
I1
I3
I6
tI3
tp1365
F-1.0878490917174104
s((I2
I2
I5
I1
I3
I6
tI2
tp1366
F-0.91664492749628712
s((I2
I3
I1
I0
I0
I6
tI2
tp1367
F-2.96814
s((I4
I4
I4
I1
I3
I6
tI2
tp1368
F-1.2787699261493368
s((I2
I1
I2
I0
I0
I6
tI2
tp1369
F-0.69999999999999996
s((I2
I3
I5
I1
I5
I6
tI3
tp1370
F-0.19599999999999995
s((I2
I3
I5
I2
I0
I4
tI3
tp1371
F2.1141196255410923
s((I3
I3
I4
I2
I10
I6
tI3
tp1372
F2.7048811775999999
s((I4
I4
I4
I2
I0
I4
tI2
tp1373
F2.0075006780996283
s((I2
I3
I4
I3
I3
I6
tI3
tp1374
F3.5232363243868074
s((I5
I3
I5
I1
I0
I4
tI1
tp1375
F0
s((I5
I2
I2
I2
I0
I6
tI3
tp1376
F0.88146917181356055
s((I3
I2
I4
I1
I2
I6
tI2
tp1377
F-0.9999997256664126
s((I4
I1
I4
I2
I0
I6
tI3
tp1378
F-0.12010154064385548
s((I0
I1
I3
I3
I3
I6
tI3
tp1379
F2.0999999999999996
s((I3
I3
I5
I0
I0
I2
tI3
tp1380
F0.0017784233804443647
s((I2
I3
I3
I2
I0
I6
tI1
tp1381
F1.2732339409569935
s((I1
I2
I4
I3
I2
I6
tI2
tp1382
F5.4824751206400002
s((I3
I1
I4
I2
I6
I6
tI2
tp1383
F1.5537520887239222
s((I3
I2
I5
I0
I0
I6
tI1
tp1384
F-2.975594553815212
s((I5
I5
I5
I0
I0
I0
tI3
tp1385
F0
s((I3
I2
I3
I3
I6
I6
tI1
tp1386
F3.9926535599999999
s((I5
I2
I4
I2
I0
I6
tI3
tp1387
F2.8523508650846767
s((F3
F3
F3
I1
I0
I6
tI1
tp1388
F-1.937915884523822
s((I3
I4
I3
I1
I0
I6
tI2
tp1389
F0.76490156921309926
s((I5
I4
I5
I1
I3
I6
tI2
tp1390
F-0.95175387322810823
s((I4
I2
I3
I1
I2
I6
tI3
tp1391
F-0.96667711000000001
s((I5
I2
I5
I2
I0
I4
tI1
tp1392
F1.4367329535999998
s((F4
F3
F3
I1
I1
I6
tI3
tp1393
F-2.3999986005387002
s((I4
I1
I5
I1
I0
I6
tI3
tp1394
F-0.98829967462381729
s((I1
I1
I5
I0
I0
I6
tI3
tp1395
F-2.8559999999999999
s((I1
I3
I5
I3
I0
I6
tI1
tp1396
F3.4608933471099945
s((I0
I3
I5
I3
I6
I6
tI2
tp1397
F4.2130200000000002
s((I4
I4
I4
I1
I2
I6
tI1
tp1398
F-0.69999999999999996
s((I5
I2
I5
I0
I0
I6
tI1
tp1399
F-2.919
s((I2
I4
I1
I1
I3
I6
tI1
tp1400
F-0.69999999999999996
s((I4
I2
I0
I1
I0
I6
tI2
tp1401
F0.40001968300000001
s((I4
I3
I5
I2
I5
I6
tI2
tp1402
F0.62176575999999995
s((I0
I1
I5
I3
I12
I6
tI3
tp1403
F3.8765999999999998
s((I4
I4
I5
I1
I2
I6
tI1
tp1404
F1.1736617399288372
s((F5
F2
I5
I1
I0
I6
tI3
tp1405
F-1.9350054607653631
s((I2
I0
I3
I3
I0
I6
tI2
tp1406
F4.1266316582399991
s((F3
F3
F3
I1
I2
I6
tI1
tp1407
F-0.99978129999999998
s((I4
I3
I2
I3
I1
I6
tI3
tp1408
F5.604865433432499
s((I5
I4
I5
I3
I5
I6
tI2
tp1409
F2.0999999999999996
s((I1
I3
I5
I2
I0
I6
tI1
tp1410
F1.6508349510712423
s((I3
I3
I5
I0
I6
I6
tI3
tp1411
F-2.7486122853000001
s((I3
I4
I5
I2
I1
I6
tI2
tp1412
F0.48999999999999999
s((F4
F2
F5
I1
I0
I6
tI1
tp1413
F-0.99999971106215246
s((I3
I2
I4
I0
I0
I4
tI1
tp1414
F-0.62999999999999989
s((I3
I2
I5
I1
I0
I4
tI3
tp1415
F-0.90927880403206274
s((I4
I2
I4
I0
I6
I6
tI3
tp1416
F-2.574411
s((I4
I3
I3
I3
I0
I6
tI3
tp1417
F5.7035961564336723
s((I3
I4
I2
I3
I0
I6
tI3
tp1418
F3.4999001805172387
s((I1
I3
I3
I1
I0
I6
tI2
tp1419
F0.93319793080654001
s((I2
I2
I2
I0
I0
I6
tI3
tp1420
F-2.9257409999999999
s((I2
I1
I4
I0
I6
I6
tI2
tp1421
F-2.0999999999999996
s((I4
I3
I1
I3
I2
I6
tI2
tp1422
F2.9819999999999998
s((I5
I3
I5
I3
I4
I6
tI2
tp1423
F2.3939999999999997
s((I4
I1
I5
I1
I3
I4
tI1
tp1424
F0
s((F3
F3
F5
I1
I0
I6
tI1
tp1425
F-2.3999756409328818
s((F2
F2
F2
I1
I0
I6
tI1
tp1426
F-0.279784886321093
s((I1
I3
I5
I2
I0
I6
tI2
tp1427
F2.587908940420232
s((I1
I3
I2
I1
I3
I6
tI2
tp1428
F0.69999999999999996
s((I5
I1
I5
I1
I0
I6
tI1
tp1429
F-0.56699999999999995
s((I4
I2
I2
I3
I3
I6
tI1
tp1430
F2.0999999999999996
s((I1
I3
I2
I3
I3
I6
tI2
tp1431
F2.7929999999999997
s((I4
I3
I2
I3
I3
I6
tI2
tp1432
F2.0999999999999996
s((I4
I1
I4
I1
I3
I6
tI1
tp1433
F-1.1257813000000001
s((I4
I3
I3
I1
I0
I4
tI3
tp1434
F-0.99756999999999996
s((I4
I1
I4
I1
I2
I6
tI2
tp1435
F-2.3099999999999996
s((I2
I3
I4
I1
I1
I6
tI2
tp1436
F-0.90999999999999992
s((I3
I3
I4
I1
I1
I6
tI2
tp1437
F-0.99582676621120003
s((I2
I2
I5
I3
I0
I6
tI3
tp1438
F3.5724724171372508
s((I4
I2
I3
I1
I0
I4
tI1
tp1439
F-0.27300000000000002
s((I2
I3
I4
I2
I3
I6
tI3
tp1440
F3.4915871493817452
s((I2
I4
I0
I0
I0
I6
tI2
tp1441
F-2.73
s((I4
I1
I3
I2
I6
I6
tI1
tp1442
F2.0999999999999996
s((I5
I4
I4
I3
I0
I6
tI1
tp1443
F5.2389768651628552
s((I4
I5
I5
I0
I0
I2
tI2
tp1444
F0
s((I3
I3
I5
I3
I0
I4
tI1
tp1445
F2.5108919802137817
s((I2
I2
I5
I2
I0
I6
tI1
tp1446
F2.4521207385527006
s((I5
I3
I3
I2
I7
I6
tI1
tp1447
F0.69999999999999996
s((I1
I2
I4
I3
I1
I6
tI3
tp1448
F2.0999999999999996
s((I3
I3
I5
I1
I3
I4
tI3
tp1449
F-2.4032399999999998
s((I5
I4
I4
I2
I0
I6
tI3
tp1450
F-1.0854439577903054
s((I3
I4
I4
I1
I5
I6
tI2
tp1451
F-0.69999999999999996
s((I3
I3
I5
I2
I5
I6
tI1
tp1452
F1.0494265599999999
s((I2
I3
I2
I1
I6
I6
tI1
tp1453
F0.69999999999999996
s((I2
I3
I5
I2
I2
I6
tI3
tp1454
F3.5045130171275805
s((I4
I2
I5
I1
I3
I6
tI3
tp1455
F-0.99406483530442569
s((I3
I2
I5
I3
I0
I4
tI1
tp1456
F2.0999999999999996
s((I2
I3
I4
I3
I0
I6
tI2
tp1457
F2.6410691492698009
s((I2
I3
I4
I3
I6
I6
tI2
tp1458
F3.8009999999999997
s((I4
I1
I5
I2
I3
I6
tI1
tp1459
F1.2417463071244623
s((I3
I4
I5
I0
I2
I6
tI3
tp1460
F-2.9756999999999998
s((I4
I3
I2
I1
I0
I6
tI2
tp1461
F-2.399673236629329
s((I5
I1
I3
I2
I0
I6
tI3
tp1462
F1.7823843970926916
s((I5
I4
I5
I0
I3
I6
tI3
tp1463
F-2.0999999999999996
s((I4
I4
I2
I1
I3
I6
tI1
tp1464
F-0.99927100000000002
s((I4
I1
I4
I1
I5
I6
tI2
tp1465
F-0.69999999999999996
s((I2
I3
I4
I2
I0
I6
tI3
tp1466
F2.9123762116861558
s((I1
I2
I2
I3
I3
I6
tI2
tp1467
F2.0999999999999996
s((I3
I3
I4
I1
I7
I6
tI3
tp1468
F-0.69999999999999996
s((I0
I4
I2
I3
I0
I6
tI1
tp1469
F2.0999999999999996
s((I5
I3
I3
I2
I0
I6
tI1
tp1470
F1.6924647802615487
s((I5
I2
I5
I2
I0
I6
tI3
tp1471
F-0.41233562968508042
s((I3
I4
I5
I0
I0
I6
tI3
tp1472
F-2.8729769139153749
s((I5
I2
I4
I2
I5
I6
tI1
tp1473
F0.69999999999999996
s((I3
I0
I4
I3
I0
I6
tI2
tp1474
F2.0999999999999996
s((I5
I2
I5
I0
I0
I2
tI1
tp1475
F0
s((I3
I3
I5
I2
I7
I6
tI3
tp1476
F1.3105727277781876
s((F3
F2
F5
I1
I0
I6
tI2
tp1477
F0.99685534860154668
s((F4
F3
F4
I1
I0
I6
tI2
tp1478
F-0.99294170330401577
s((F5
F3
F5
I2
I2
I6
tI3
tp1479
F0.59338069159935991
s((I2
I4
I4
I3
I9
I6
tI2
tp1480
F0.69999999999999996
s((I4
I3
I4
I0
I0
I6
tI2
tp1481
F-2.9944109999999999
s((I2
I3
I5
I0
I0
I2
tI1
tp1482
F0
s((I4
I3
I5
I2
I1
I4
tI3
tp1483
F0.90999999999999992
s((I1
I2
I4
I0
I2
I4
tI2
tp1484
F0
s((F3
F3
F5
I0
I0
I4
tI3
tp1485
F-0.2690723964491758
s((F5
F3
F5
I2
I0
I6
tI3
tp1486
F-0.15719091266953433
s((I5
I3
I4
I3
I0
I6
tI1
tp1487
F5.6513035155920148
s((I3
I2
I3
I1
I6
I6
tI2
tp1488
F-0.69999999999999996
s((I2
I4
I5
I2
I4
I6
tI2
tp1489
F0.69999999999999996
s((I4
I3
I4
I1
I2
I6
tI2
tp1490
F-1.4185931613436042
s((I4
I1
I5
I0
I0
I6
tI3
tp1491
F-2.994518641402331
s((I4
I4
I2
I1
I0
I6
tI1
tp1492
F-2.3925986494129496
s((I1
I4
I3
I3
I3
I6
tI3
tp1493
F2.0999999999999996
s((F2
F3
F1
I2
I2
I6
tI1
tp1494
F-0.84699999999999998
s((I3
I3
I5
I1
I5
I6
tI1
tp1495
F0.50065477163550365
s((I4
I3
I0
I1
I1
I6
tI1
tp1496
F-0.90999999999999992
s((I4
I3
I2
I1
I3
I6
tI2
tp1497
F-1.099
s((F2
F4
F5
I1
I3
I6
tI1
tp1498
F-0.96106786300000002
s((I4
I2
I3
I0
I0
I6
tI3
tp1499
F-2.87380317
s((I2
I2
I5
I1
I0
I6
tI1
tp1500
F-2.3337689344474115
s((I2
I3
I5
I3
I0
I4
tI1
tp1501
F2.0999999999999996
s((F3
F3
F4
I1
I0
I6
tI1
tp1502
F-0.99555842942690709
s((I3
I3
I4
I2
I0
I4
tI1
tp1503
F3.4073260353440693
s((F4
F2
F5
I0
I0
I4
tI2
tp1504
F-0.19978115856418732
s((I0
I2
I4
I3
I3
I6
tI1
tp1505
F2.0999999999999996
s((F3
F1
F4
I1
I0
I6
tI2
tp1506
F-2.5257568912520543
s((I1
I3
I4
I1
I0
I4
tI2
tp1507
F1.4454816409599998
s((I4
I3
I4
I2
I5
I6
tI2
tp1508
F1.6634208639999997
s((F3
F3
F5
I2
I0
I6
tI3
tp1509
F2.662619925993873
s((I2
I3
I3
I1
I0
I6
tI2
tp1510
F-0.44546958373493178
s((I2
I2
I5
I0
I0
I6
tI3
tp1511
F-2.1463167020832441
s((I2
I3
I5
I3
I8
I6
tI1
tp1512
F3.0550799999999998
s((I5
I2
I4
I2
I6
I6
tI3
tp1513
F4.1580186249779949
s((I5
I3
I1
I2
I0
I6
tI2
tp1514
F2.1533551746669874
s((I5
I4
I3
I1
I0
I6
tI3
tp1515
F-1.0000269007561
s((I4
I1
I4
I3
I0
I6
tI1
tp1516
F1.1354312071419539
s((I1
I2
I4
I1
I0
I6
tI2
tp1517
F-0.18365500399301399
s((I2
I3
I4
I0
I5
I6
tI2
tp1518
F-1.2208000000000001
s((I5
I2
I2
I1
I0
I6
tI1
tp1519
F-0.9919
s((I4
I2
I5
I2
I0
I6
tI2
tp1520
F2.7036276958041374
s((I2
I2
I4
I2
I5
I6
tI2
tp1521
F-0.69999999999999996
s((I4
I4
I3
I1
I3
I6
tI2
tp1522
F-2.392617468054099
s((I5
I3
I4
I2
I5
I6
tI3
tp1523
F1.6176039082139928
s((I3
I2
I3
I2
I0
I6
tI1
tp1524
F-0.17904754416156177
s((I3
I2
I4
I3
I0
I6
tI3
tp1525
F6.1243544780448929
s((I2
I3
I3
I0
I0
I6
tI3
tp1526
F-1.586473
s((I4
I1
I3
I1
I6
I6
tI2
tp1527
F-0.90999999999999992
s((I4
I5
I5
I0
I0
I6
tI2
tp1528
F-2.73
s((I2
I2
I5
I1
I3
I6
tI3
tp1529
F1.7370733194594195
s((I5
I1
I2
I2
I3
I6
tI3
tp1530
F0.69999999999999996
s((I4
I4
I5
I2
I0
I6
tI1
tp1531
F-0.24698595749433616
s((I5
I1
I5
I2
I0
I6
tI2
tp1532
F1.9040414092922027
s((I2
I3
I0
I0
I0
I6
tI2
tp1533
F-1.5190000000000001
s((I4
I2
I3
I2
I0
I6
tI2
tp1534
F0.81812181929711514
s((I2
I3
I5
I1
I3
I4
tI1
tp1535
F-0.69999999999999996
s((I3
I1
I3
I2
I0
I6
tI2
tp1536
F2.0661609969024397
s((I5
I3
I5
I0
I3
I6
tI3
tp1537
F-0.69999999999999996
s((I2
I3
I2
I3
I0
I6
tI3
tp1538
F3.0471452099473102
s((I4
I3
I2
I2
I0
I6
tI2
tp1539
F0.031396367264393432
s((I3
I3
I3
I1
I0
I6
tI3
tp1540
F-2.740661302334976
s((F3
F4
F5
I0
I0
I2
tI3
tp1541
F0.17060877266991342
s((I1
I3
I2
I3
I4
I6
tI1
tp1542
F2.0999999999999996
s((I2
I4
I5
I1
I0
I6
tI1
tp1543
F-2.6602992155265426
s((I3
I3
I5
I2
I3
I6
tI3
tp1544
F2.0634880006858687
s((I5
I1
I4
I2
I3
I6
tI1
tp1545
F-0.54918303999999996
s((I3
I3
I4
I3
I4
I6
tI2
tp1546
F0
s((I5
I3
I4
I2
I4
I6
tI3
tp1547
F1.521165184
s((I4
I3
I4
I1
I3
I6
tI3
tp1548
F-0.9485750574596995
s((I3
I1
I5
I2
I3
I6
tI1
tp1549
F-0.35369985279999994
s((I4
I2
I3
I1
I2
I4
tI2
tp1550
F0
s((F3
F3
F5
I1
I0
I4
tI3
tp1551
F-1.0549018367612768
s((I3
I3
I5
I0
I0
I0
tI3
tp1552
F-0.69998244968957157
s((I1
I3
I3
I3
I5
I6
tI1
tp1553
F3.2465999999999999
s((F1
F3
F5
I1
I0
I6
tI2
tp1554
F-0.91082337510185352
s((I0
I2
I5
I3
I8
I6
tI1
tp1555
F2.0999999999999996
s((I4
I3
I4
I2
I6
I6
tI1
tp1556
F1.2164584525495363
s((F4
F3
F5
I1
I0
I6
tI3
tp1557
F-1.7344952563634188
s((I0
I3
I4
I3
I2
I6
tI3
tp1558
F2.0999999999999996
s((F4
F4
F4
I2
I3
I6
tI2
tp1559
F1.1471683654091618
s((I4
I1
I5
I3
I0
I6
tI1
tp1560
F2.0999999999999996
s((I4
I2
I4
I2
I5
I6
tI2
tp1561
F2.0999999999999996
s((I1
I3
I4
I1
I0
I6
tI1
tp1562
F-1.0141325183457297
s((I4
I3
I4
I1
I0
I6
tI1
tp1563
F-1.0376986711691414
s((I3
I3
I3
I0
I0
I4
tI3
tp1564
F-2.919
s((I2
I2
I2
I3
I0
I6
tI2
tp1565
F5.9368606788004659
s((I2
I3
I3
I2
I2
I6
tI3
tp1566
F1.1272553591567129
s((I4
I3
I3
I2
I0
I6
tI3
tp1567
F-0.09156473365017026
s((I1
I4
I5
I3
I0
I6
tI3
tp1568
F5.5760235573497807
s((I4
I0
I5
I1
I0
I4
tI3
tp1569
F-1.3300000000000001
s((I5
I3
I4
I2
I3
I6
tI1
tp1570
F0.28580726410891177
s((I4
I5
I5
I1
I0
I6
tI3
tp1571
F0.14700000000000002
s((I3
I2
I3
I0
I0
I6
tI1
tp1572
F-2.73
s((I5
I1
I4
I2
I5
I6
tI2
tp1573
F1.5269905638591865
s((I3
I2
I5
I2
I0
I6
tI2
tp1574
F0.75605229355605608
s((I1
I2
I4
I2
I0
I6
tI2
tp1575
F4.0050815392877475
s((I3
I2
I3
I3
I3
I6
tI2
tp1576
F2.2351456372
s((I2
I3
I3
I3
I0
I6
tI1
tp1577
F1.7096539992434689
s((I2
I1
I5
I2
I1
I4
tI3
tp1578
F2.0999999999999996
s((I4
I3
I3
I2
I2
I6
tI3
tp1579
F0.78756999999999999
s((I2
I1
I5
I2
I0
I6
tI1
tp1580
F4.5915479935916377
s((I5
I3
I5
I1
I5
I6
tI3
tp1581
F-0.69999999999999996
s((I4
I3
I4
I1
I0
I4
tI2
tp1582
F-0.0033637560753624514
s((I4
I3
I0
I1
I0
I6
tI2
tp1583
F-0.9919
s((I3
I1
I5
I2
I0
I6
tI3
tp1584
F0.21000000000000002
s((I2
I3
I5
I2
I1
I4
tI1
tp1585
F0.69999999999999996
s((I2
I3
I4
I1
I0
I6
tI1
tp1586
F-2.3401796138776003
s((I2
I3
I5
I0
I0
I6
tI3
tp1587
F-2.7732780349148887
s((I4
I4
I4
I0
I0
I6
tI2
tp1588
F-2.5415438999999997
s((I2
I4
I5
I1
I5
I6
tI3
tp1589
F-0.69999999999999996
s((I3
I1
I5
I0
I5
I6
tI3
tp1590
F-1.29514
s((I4
I2
I4
I1
I3
I6
tI2
tp1591
F-0.999870164515823
s((I2
I2
I5
I3
I12
I6
tI3
tp1592
F3.31968
s((I5
I2
I5
I2
I3
I6
tI3
tp1593
F-0.064560809473246383
s((I2
I4
I5
I0
I0
I4
tI3
tp1594
F0.69999999999999996
s((I4
I3
I3
I1
I6
I6
tI1
tp1595
F-0.99927100000000002
s((I4
I2
I1
I1
I0
I6
tI3
tp1596
F-0.9919
s((I3
I1
I3
I1
I0
I6
tI2
tp1597
F-0.99756999999999996
s.